add_dasm
aa234567890123456789012345678901
windows_exes/notepad.exe:     file format pei-i386


Disassembly of section .text:

01001000 <.text>:
 1001000:	ef                   	out    %eax,(%dx)
 1001001:	6f                   	outsl  %ds:(%esi),(%dx)
 1001002:	dd 77 17             	fnsave 0x17(%edi)
 1001005:	6c                   	insb   (%dx),%es:(%edi)
 1001006:	dd 77 25             	fnsave 0x25(%edi)
 1001009:	ba df 77 05 bd       	mov    $0xbd0577df,%edx
 100100e:	df 77 ab             	fbstp  -0x55(%edi)
 1001011:	7a dd                	jp     0x1000ff0
 1001013:	77 42                	ja     0x1001057
 1001015:	78 dd                	js     0x1000ff4
 1001017:	77 57                	ja     0x1001070
 1001019:	d7                   	xlat   %ds:(%ebx)
 100101a:	dd 77 00             	fnsave 0x0(%edi)
 100101d:	00 00                	add    %al,(%eax)
 100101f:	00 70 d2             	add    %dh,-0x2e(%eax)
 1001022:	3d 77 00 00 00       	cmp    $0x77,%eax
 1001027:	00 19                	add    %bl,(%ecx)
 1001029:	dc f2                	fdiv   %st,%st(2)
 100102b:	77 05                	ja     0x1001032
 100102d:	4a                   	dec    %edx
 100102e:	f4                   	hlt    
 100102f:	77 a9                	ja     0x1000fda
 1001031:	de f2                	fdivp  %st,%st(2)
 1001033:	77 5f                	ja     0x1001094
 1001035:	6e                   	outsb  %ds:(%esi),(%dx)
 1001036:	f1                   	icebp  
 1001037:	77 56                	ja     0x100108f
 1001039:	f4                   	hlt    
 100103a:	f2 77 9d             	bnd ja 0x1000fda
 100103d:	7f f1                	jg     0x1001030
 100103f:	77 28                	ja     0x1001069
 1001041:	be f1 77 25 4b       	mov    $0x4b2577f1,%esi
 1001046:	f4                   	hlt    
 1001047:	77 bb                	ja     0x1001004
 1001049:	a5                   	movsl  %ds:(%esi),%es:(%edi)
 100104a:	f1                   	icebp  
 100104b:	77 ac                	ja     0x1000ff9
 100104d:	7e f1                	jle    0x1001040
 100104f:	77 95                	ja     0x1000fe6
 1001051:	56                   	push   %esi
 1001052:	f4                   	hlt    
 1001053:	77 22                	ja     0x1001077
 1001055:	fb                   	sti    
 1001056:	f3 77 c1             	repz ja 0x100101a
 1001059:	61                   	popa   
 100105a:	f1                   	icebp  
 100105b:	77 b3                	ja     0x1001010
 100105d:	83 f1 77             	xor    $0x77,%ecx
 1001060:	69 5a f1 77 8f 93 f1 	imul   $0xf1938f77,-0xf(%edx),%ebx
 1001067:	77 fa                	ja     0x1001063
 1001069:	6b f1 77             	imul   $0x77,%ecx,%esi
 100106c:	b9 7d f1 77 db       	mov    $0xdb77f17d,%ecx
 1001071:	5e                   	pop    %esi
 1001072:	f1                   	icebp  
 1001073:	77 b7                	ja     0x100102c
 1001075:	d4 f1                	aam    $0xf1
 1001077:	77 05                	ja     0x100107e
 1001079:	3a f2                	cmp    %dl,%dh
 100107b:	77 ae                	ja     0x100102b
 100107d:	3a f2                	cmp    %dl,%dh
 100107f:	77 10                	ja     0x1001091
 1001081:	94                   	xchg   %eax,%esp
 1001082:	f1                   	icebp  
 1001083:	77 70                	ja     0x10010f5
 1001085:	5b                   	pop    %ebx
 1001086:	f1                   	icebp  
 1001087:	77 00                	ja     0x1001089
 1001089:	00 00                	add    %al,(%eax)
 100108b:	00 b8 97 80 7c 2e    	add    %bh,0x2e7c8097(%eax)
 1001091:	93                   	xchg   %eax,%ebx
 1001092:	80 7c b7 a4 80       	cmpb   $0x80,-0x5c(%edi,%esi,4)
 1001097:	7c 64                	jl     0x10010fd
 1001099:	a8 80                	test   $0x80,%al
 100109b:	7c a0                	jl     0x100103d
 100109d:	9f                   	lahf   
 100109e:	80 7c 8d 37 83       	cmpb   $0x83,0x37(%ebp,%ecx,4)
 10010a3:	7c eb                	jl     0x1001090
 10010a5:	3f                   	aas    
 10010a6:	83 7c a9 ff 80       	cmpl   $0xffffff80,-0x1(%ecx,%ebp,4)
 10010ab:	7c 12                	jl     0x10010bf
 10010ad:	ff 80 7c fd 0c 81    	incl   -0x7ef30284(%eax)
 10010b3:	7c 20                	jl     0x10010d5
 10010b5:	94                   	xchg   %eax,%esp
 10010b6:	80 7c e9 17 80       	cmpb   $0x80,0x17(%ecx,%ebp,8)
 10010bb:	7c 1a                	jl     0x10010d7
 10010bd:	1e                   	push   %ds
 10010be:	80 7c 85 de 80       	cmpb   $0x80,-0x22(%ebp,%eax,4)
 10010c3:	7c fd                	jl     0x10010c2
 10010c5:	49                   	dec    %ecx
 10010c6:	84 7c 7b 1d          	test   %bh,0x1d(%ebx,%edi,2)
 10010ca:	80 7c 31 b7 80       	cmpb   $0x80,-0x49(%ecx,%esi,1)
 10010cf:	7c f2                	jl     0x10010c3
 10010d1:	1e                   	push   %ds
 10010d2:	80 7c bf fc 80       	cmpb   $0x80,-0x4(%edi,%edi,4)
 10010d7:	7c f2                	jl     0x10010cb
 10010d9:	15 81 7c bf 99       	adc    $0x99bf7c81,%eax
 10010de:	80 7c 1d 9a 80       	cmpb   $0x80,-0x66(%ebp,%ebx,1)
 10010e3:	7c 99                	jl     0x100107e
 10010e5:	9a 80 7c c9 2e 83 7c 	lcall  $0x7c83,$0x2ec97c80
 10010ec:	ee                   	out    %al,(%dx)
 10010ed:	a3 80 7c 35 2e       	mov    %eax,0x2e357c80
 10010f2:	83 7c 56 a6 87       	cmpl   $0xffffff87,-0x5a(%esi,%edx,2)
 10010f7:	7c d7                	jl     0x10010d0
 10010f9:	9b                   	fwait
 10010fa:	80 7c f4 ba 80       	cmpb   $0x80,-0x46(%esp,%esi,8)
 10010ff:	7c 12                	jl     0x1001113
 1001101:	18 80 7c f0 07 81    	sbb    %al,-0x7ef80f84(%eax)
 1001107:	7c 26                	jl     0x100112f
 1001109:	aa                   	stos   %al,%es:(%edi)
 100110a:	80 7c b0 99 80       	cmpb   $0x80,-0x67(%eax,%esi,4)
 100110f:	7c 30                	jl     0x1001141
 1001111:	ae                   	scas   %es:(%edi),%al
 1001112:	80 7c 13 70 81       	cmpb   $0x81,0x70(%ebx,%edx,1)
 1001117:	7c c2                	jl     0x10010db
 1001119:	0f 81 7c 67 ee 80    	jno    0x81ee789b
 100111f:	7c 71                	jl     0x1001192
 1001121:	ef                   	out    %eax,(%dx)
 1001122:	80 7c dc b7 80       	cmpb   $0x80,-0x49(%esp,%ebx,8)
 1001127:	7c 5c                	jl     0x1001185
 1001129:	aa                   	stos   %al,%es:(%edi)
 100112a:	80 7c 56 98 80       	cmpb   $0x80,-0x68(%esi,%edx,2)
 100112f:	7c 7f                	jl     0x10011b0
 1001131:	ba 80 7c d4 25       	mov    $0x25d47c80,%edx
 1001136:	83 7c 01 fe 90       	cmpl   $0xffffff90,-0x2(%ecx,%eax,1)
 100113b:	7c 17                	jl     0x1001154
 100113d:	0e                   	push   %cs
 100113e:	81 7c 10 fe 90 7c 64 	cmpl   $0xa1647c90,-0x2(%eax,%edx,1)
 1001145:	a1 
 1001146:	80 7c 17 09 83       	cmpb   $0x83,0x9(%edi,%edx,1)
 100114b:	7c a7                	jl     0x10010f4
 100114d:	4b                   	dec    %ebx
 100114e:	83 7c 00 31 81       	cmpl   $0xffffff81,0x31(%eax,%eax,1)
 1001153:	7c 5e                	jl     0x10011b3
 1001155:	20 83 7c 4b 1f 83    	and    %al,-0x7ce0b484(%ebx)
 100115b:	7c a5                	jl     0x1001102
 100115d:	99                   	cltd   
 100115e:	80 7c 04 ba 80       	cmpb   $0x80,-0x46(%esp,%eax,1)
 1001163:	7c 88                	jl     0x10010ed
 1001165:	9c                   	pushf  
 1001166:	80 7c 95 b9 80       	cmpb   $0x80,-0x47(%ebp,%edx,4)
 100116b:	7c 6a                	jl     0x10011d7
 100116d:	3e 86 7c 00 00       	xchg   %bh,%ds:0x0(%eax,%eax,1)
 1001172:	00 00                	add    %al,(%eax)
 1001174:	18 7c a7 7c          	sbb    %bh,0x7c(%edi,%eiz,4)
 1001178:	ce                   	into   
 1001179:	18 a1 7c a9 b1 a2    	sbb    %ah,-0x5d4e5684(%ecx)
 100117f:	7c 6f                	jl     0x10011f0
 1001181:	2e a6                	cmpsb  %es:(%edi),%cs:(%esi)
 1001183:	7c 00                	jl     0x1001185
 1001185:	00 00                	add    %al,(%eax)
 1001187:	00 8e 90 42 7e 30    	add    %cl,0x307e4290(%esi)
 100118d:	99                   	cltd   
 100118e:	42                   	inc    %edx
 100118f:	7e 9d                	jle    0x100112e
 1001191:	86 41 7e             	xchg   %al,0x7e(%ecx)
 1001194:	c7 86 41 7e ab 47 42 	movl   $0x78227e42,0x47ab7e41(%esi)
 100119b:	7e 22 78 
 100119e:	42                   	inc    %edx
 100119f:	7e f6                	jle    0x1001197
 10011a1:	9b                   	fwait
 10011a2:	42                   	inc    %edx
 10011a3:	7e 20                	jle    0x10011c5
 10011a5:	8d 42 7e             	lea    0x7e(%edx),%eax
 10011a8:	9c                   	pushf  
 10011a9:	b1 42                	mov    $0x42,%cl
 10011ab:	7e 7b                	jle    0x1001228
 10011ad:	1f                   	pop    %ds
 10011ae:	43                   	inc    %ebx
 10011af:	7e 56                	jle    0x1001207
 10011b1:	af                   	scas   %es:(%edi),%eax
 10011b2:	42                   	inc    %edx
 10011b3:	7e 23                	jle    0x10011d8
 10011b5:	98                   	cwtl   
 10011b6:	42                   	inc    %edx
 10011b7:	7e ff                	jle    0x10011b8
 10011b9:	97                   	xchg   %eax,%edi
 10011ba:	42                   	inc    %edx
 10011bb:	7e c7                	jle    0x1001184
 10011bd:	03 43 7e             	add    0x7e(%ebx),%eax
 10011c0:	d2 90 41 7e 36 9e    	rclb   %cl,-0x61c981bf(%eax)
 10011c6:	41                   	inc    %ecx
 10011c7:	7e 76                	jle    0x100123f
 10011c9:	ee                   	out    %al,(%dx)
 10011ca:	42                   	inc    %edx
 10011cb:	7e 22                	jle    0x10011ef
 10011cd:	b2 42                	mov    $0x42,%dl
 10011cf:	7e 7f                	jle    0x1001250
 10011d1:	af                   	scas   %es:(%edi),%eax
 10011d2:	41                   	inc    %ecx
 10011d3:	7e 97                	jle    0x100116c
 10011d5:	7b 42                	jnp    0x1001219
 10011d7:	7e 69                	jle    0x1001242
 10011d9:	9d                   	popf   
 10011da:	41                   	inc    %ecx
 10011db:	7e 46                	jle    0x1001223
 10011dd:	de 41 7e             	fiadd  0x7e(%ecx)
 10011e0:	a3 d0 42 7e d2       	mov    %eax,0xd27e42d0
 10011e5:	d1 42 7e             	roll   0x7e(%edx)
 10011e8:	c8 98 42 7e          	enter  $0x4298,$0x7e
 10011ec:	bc e8 42 7e 0e       	mov    $0xe7e42e8,%esp
 10011f1:	96                   	xchg   %eax,%esi
 10011f2:	42                   	inc    %edx
 10011f3:	7e 5a                	jle    0x100124f
 10011f5:	ca 42 7e             	lret   $0x7e42
 10011f8:	34 af                	xor    $0xaf,%al
 10011fa:	41                   	inc    %ecx
 10011fb:	7e ab                	jle    0x10011a8
 10011fd:	ae                   	scas   %es:(%edi),%al
 10011fe:	42                   	inc    %edx
 10011ff:	7e 50                	jle    0x1001251
 1001201:	f7 42 7e 4c b2 42 7e 	testl  $0x7e42b24c,0x7e(%edx)
 1001208:	9b                   	fwait
 1001209:	92                   	xchg   %eax,%edx
 100120a:	41                   	inc    %ecx
 100120b:	7e 49                	jle    0x1001256
 100120d:	98                   	cwtl   
 100120e:	42                   	inc    %edx
 100120f:	7e 15                	jle    0x1001226
 1001211:	b4 42                	mov    $0x42,%ah
 1001213:	7e 3b                	jle    0x1001250
 1001215:	ea 41 7e cd a5 42 7e 	ljmp   $0x7e42,$0xa5cd7e41
 100121c:	9c                   	pushf  
 100121d:	8f 41 7e             	popl   0x7e(%ecx)
 1001220:	9e                   	sahf   
 1001221:	b2 42                	mov    $0x42,%dl
 1001223:	7e d5                	jle    0x10011fa
 1001225:	8f 42 7e             	popl   0x7e(%edx)
 1001228:	d4 1b                	aam    $0x1b
 100122a:	46                   	inc    %esi
 100122b:	7e 1b                	jle    0x1001248
 100122d:	af                   	scas   %es:(%edi),%eax
 100122e:	42                   	inc    %edx
 100122f:	7e 1f                	jle    0x1001250
 1001231:	20 42 7e             	and    %al,0x7e(%edx)
 1001234:	a0 97 42 7e 4e       	mov    0x4e7e4297,%al
 1001239:	97                   	xchg   %eax,%edi
 100123a:	42                   	inc    %edx
 100123b:	7e cc                	jle    0x1001209
 100123d:	73 42                	jae    0x1001281
 100123f:	7e 9a                	jle    0x10011db
 1001241:	92                   	xchg   %eax,%edx
 1001242:	42                   	inc    %edx
 1001243:	7e b0                	jle    0x10011f5
 1001245:	b1 42                	mov    $0x42,%cl
 1001247:	7e bd                	jle    0x1001206
 1001249:	1a 43 7e             	sbb    0x7e(%ebx),%al
 100124c:	65 02 43 7e          	add    %gs:0x7e(%ebx),%al
 1001250:	66                   	data16
 1001251:	f1                   	icebp  
 1001252:	42                   	inc    %edx
 1001253:	7e 77                	jle    0x10012cc
 1001255:	02 43 7e             	add    0x7e(%ebx),%al
 1001258:	67 f9                	addr16 stc 
 100125a:	41                   	inc    %ecx
 100125b:	7e c4                	jle    0x1001221
 100125d:	d2 42 7e             	rolb   %cl,0x7e(%edx)
 1001260:	96                   	xchg   %eax,%esi
 1001261:	d8 42 7e             	fadds  0x7e(%edx)
 1001264:	ba 14 43 7e 34       	mov    $0x347e4314,%edx
 1001269:	65                   	gs
 100126a:	46                   	inc    %esi
 100126b:	7e bb                	jle    0x1001228
 100126d:	c2 42 7e             	ret    $0x7e42
 1001270:	a6                   	cmpsb  %es:(%edi),%ds:(%esi)
 1001271:	88 41 7e             	mov    %al,0x7e(%ecx)
 1001274:	6e                   	outsb  %ds:(%esi),(%dx)
 1001275:	43                   	inc    %ebx
 1001276:	42                   	inc    %edx
 1001277:	7e 12                	jle    0x100128b
 1001279:	b1 42                	mov    $0x42,%cl
 100127b:	7e 6c                	jle    0x10012e9
 100127d:	73 42                	jae    0x10012c1
 100127f:	7e b6                	jle    0x1001237
 1001281:	a9 41 7e 05 43       	test   $0x43057e41,%eax
 1001286:	42                   	inc    %edx
 1001287:	7e 4e                	jle    0x10012d7
 1001289:	4a                   	dec    %edx
 100128a:	42                   	inc    %edx
 100128b:	7e 0f                	jle    0x100129c
 100128d:	91                   	xchg   %eax,%ecx
 100128e:	42                   	inc    %edx
 100128f:	7e ac                	jle    0x100123d
 1001291:	18 43 7e             	sbb    %al,0x7e(%ebx)
 1001294:	01 8a 41 7e f6 8b    	add    %ecx,-0x740981bf(%edx)
 100129a:	41                   	inc    %ecx
 100129b:	7e 1e                	jle    0x10012bb
 100129d:	94                   	xchg   %eax,%esp
 100129e:	41                   	inc    %ecx
 100129f:	7e 24                	jle    0x10012c5
 10012a1:	74 42                	je     0x10012e5
 10012a3:	7e cb                	jle    0x1001270
 10012a5:	8c 41 7e             	mov    %es,0x7e(%ecx)
 10012a8:	c6                   	(bad)  
 10012a9:	91                   	xchg   %eax,%ecx
 10012aa:	41                   	inc    %ecx
 10012ab:	7e f7                	jle    0x10012a4
 10012ad:	17                   	pop    %ss
 10012ae:	43                   	inc    %ebx
 10012af:	7e 00                	jle    0x10012b1
 10012b1:	00 00                	add    %al,(%eax)
 10012b3:	00 3c 64             	add    %bh,(%esp,%eiz,2)
 10012b6:	00 73 40             	add    %dh,0x40(%ebx)
 10012b9:	4d                   	dec    %ebp
 10012ba:	00 73 91             	add    %dh,-0x6f(%ebx)
 10012bd:	50                   	push   %eax
 10012be:	00 73 00             	add    %dh,0x0(%ebx)
 10012c1:	00 00                	add    %al,(%eax)
 10012c3:	00 06                	add    %al,(%esi)
 10012c5:	49                   	dec    %ecx
 10012c6:	3d 76 ce 85 3c       	cmp    $0x3c85ce76,%eax
 10012cb:	76 84                	jbe    0x1001251
 10012cd:	9d                   	popf   
 10012ce:	3d 76 e1 c3 3c       	cmp    $0x3cc3e176,%eax
 10012d3:	76 06                	jbe    0x10012db
 10012d5:	23 3b                	and    (%ebx),%edi
 10012d7:	76 9d                	jbe    0x1001276
 10012d9:	7b 3c                	jnp    0x1001317
 10012db:	76 02                	jbe    0x10012df
 10012dd:	86 3c 76             	xchg   %bh,(%esi,%esi,2)
 10012e0:	36 00 3c 76          	add    %bh,%ss:(%esi,%esi,2)
 10012e4:	2b 7c 3c 76          	sub    0x76(%esp,%edi,1),%edi
 10012e8:	00 00                	add    %al,(%eax)
 10012ea:	00 00                	add    %al,(%eax)
 10012ec:	ae                   	scas   %es:(%edi),%al
 10012ed:	2d c2 4d 9a 9e       	sub    $0x9e9a4dc2,%eax
 10012f2:	c2 4d ce             	ret    $0xce4d
 10012f5:	9e                   	sahf   
 10012f6:	c2 4d cf             	ret    $0xcf4d
 10012f9:	ae                   	scas   %es:(%edi),%al
 10012fa:	c3                   	ret    
 10012fb:	4d                   	dec    %ebp
 10012fc:	69 ab c3 4d b6 9e c2 	imul   $0xd0364dc2,-0x6149b23d(%ebx),%ebp
 1001303:	4d 36 d0 
 1001306:	c0 4d 94 5c          	rorb   $0x5c,-0x6c(%ebp)
 100130a:	c2 4d 77             	ret    $0x774d
 100130d:	ce                   	into   
 100130e:	c0 4d 2f 80          	rorb   $0x80,0x2f(%ebp)
 1001312:	c3                   	ret    
 1001313:	4d                   	dec    %ebp
 1001314:	0c fb                	or     $0xfb,%al
 1001316:	c2 4d 7e             	ret    $0x7e4d
 1001319:	9e                   	sahf   
 100131a:	c2 4d ac             	ret    $0xac4d
 100131d:	17                   	pop    %ss
 100131e:	c5 4d eb             	lds    -0x15(%ebp),%ecx
 1001321:	ee                   	out    %al,(%dx)
 1001322:	c0 4d 67 9d          	rorb   $0x9d,0x67(%ebp)
 1001326:	c2 4d 95             	ret    $0x954d
 1001329:	d6                   	(bad)  
 100132a:	c3                   	ret    
 100132b:	4d                   	dec    %ebp
 100132c:	d8 23                	fsubs  (%ebx)
 100132e:	c5 4d a4             	lds    -0x5c(%ebp),%ecx
 1001331:	f1                   	icebp  
 1001332:	c0 4d db f1          	rorb   $0xf1,-0x25(%ebp)
 1001336:	c0 4d 7c 53          	rorb   $0x53,0x7c(%ebp)
 100133a:	c2 4d 4f             	ret    $0x4f4d
 100133d:	ee                   	out    %al,(%dx)
 100133e:	c3                   	ret    
 100133f:	4d                   	dec    %ebp
 1001340:	6b 80 c3 4d 00 00 00 	imul   $0x0,0x4dc3(%eax),%eax
	...
 1001353:	00 87 52 02 48 00    	add    %al,0x480252(%edi)
 1001359:	00 00                	add    %al,(%eax)
 100135b:	00 02                	add    %al,(%edx)
 100135d:	00 00                	add    %al,(%eax)
 100135f:	00 24 00             	add    %ah,(%eax,%eax,1)
 1001362:	00 00                	add    %al,(%eax)
 1001364:	f0 18 00             	lock sbb %al,(%eax)
 1001367:	00 f0                	add    %dh,%al
 1001369:	0c 00                	or     $0x0,%al
 100136b:	00 01                	add    %al,(%ecx)
 100136d:	01 00                	add    %eax,(%eax)
 100136f:	00 ea                	add    %ch,%dl
 1001371:	03 00                	add    (%eax),%eax
 1001373:	00 03                	add    %al,(%ebx)
 1001375:	01 00                	add    %eax,(%eax)
 1001377:	00 ea                	add    %ch,%dl
 1001379:	03 00                	add    (%eax),%eax
	...
 1001383:	00 02                	add    %al,(%edx)
 1001385:	01 00                	add    %eax,(%eax)
 1001387:	00 eb                	add    %ch,%bl
 1001389:	03 00                	add    (%eax),%eax
	...
 1001397:	00 25 00 64 00 00    	add    %ah,0x6400
 100139d:	00 00                	add    %al,(%eax)
 100139f:	00 4e 00             	add    %cl,0x0(%esi)
 10013a2:	70 00                	jo     0x10013a4
 10013a4:	45                   	inc    %ebp
 10013a5:	00 6e 00             	add    %ch,0x0(%esi)
 10013a8:	63 00                	arpl   %ax,(%eax)
 10013aa:	6f                   	outsl  %ds:(%esi),(%dx)
 10013ab:	00 64 00 69          	add    %ah,0x69(%eax,%eax,1)
 10013af:	00 6e 00             	add    %ch,0x0(%esi)
 10013b2:	67 00 44 00          	add    %al,0x0(%si)
 10013b6:	69 00 61 00 6c 00    	imul   $0x6c0061,(%eax),%eax
 10013bc:	6f                   	outsl  %ds:(%esi),(%dx)
 10013bd:	00 67 00             	add    %ah,0x0(%edi)
 10013c0:	00 00                	add    %al,(%eax)
 10013c2:	00 00                	add    %al,(%eax)
 10013c4:	74 00                	je     0x10013c6
 10013c6:	78 00                	js     0x10013c8
 10013c8:	74 00                	je     0x10013ca
 10013ca:	00 00                	add    %al,(%eax)
 10013cc:	2a 00                	sub    (%eax),%al
 10013ce:	2e 00 74 00 78       	add    %dh,%cs:0x78(%eax,%eax,1)
 10013d3:	00 74 00 00          	add    %dh,0x0(%eax,%eax,1)
 10013d7:	00 52 65             	add    %dl,0x65(%edx)
 10013da:	67 69 73 74 65 72 50 	imul   $0x65507265,0x74(%bp,%di),%esi
 10013e1:	65 
 10013e2:	6e                   	outsb  %ds:(%esi),(%dx)
 10013e3:	41                   	inc    %ecx
 10013e4:	70 70                	jo     0x1001456
 10013e6:	00 00                	add    %al,(%eax)
 10013e8:	6e                   	outsb  %ds:(%esi),(%dx)
 10013e9:	6f                   	outsl  %ds:(%esi),(%dx)
 10013ea:	74 65                	je     0x1001451
 10013ec:	70 61                	jo     0x100144f
 10013ee:	64 2e 63 68 6d       	fs arpl %bp,%cs:%fs:0x6d(%eax)
 10013f3:	00 69 00             	add    %ch,0x0(%ecx)
 10013f6:	57                   	push   %edi
 10013f7:	00 69 00             	add    %ch,0x0(%ecx)
 10013fa:	6e                   	outsb  %ds:(%esi),(%dx)
 10013fb:	00 64 00 6f          	add    %ah,0x6f(%eax,%eax,1)
 10013ff:	00 77 00             	add    %dh,0x0(%edi)
 1001402:	50                   	push   %eax
 1001403:	00 6f 00             	add    %ch,0x0(%edi)
 1001406:	73 00                	jae    0x1001408
 1001408:	44                   	inc    %esp
 1001409:	00 59 00             	add    %bl,0x0(%ecx)
 100140c:	00 00                	add    %al,(%eax)
 100140e:	00 00                	add    %al,(%eax)
 1001410:	69 00 57 00 69 00    	imul   $0x690057,(%eax),%eax
 1001416:	6e                   	outsb  %ds:(%esi),(%dx)
 1001417:	00 64 00 6f          	add    %ah,0x6f(%eax,%eax,1)
 100141b:	00 77 00             	add    %dh,0x0(%edi)
 100141e:	50                   	push   %eax
 100141f:	00 6f 00             	add    %ch,0x0(%edi)
 1001422:	73 00                	jae    0x1001424
 1001424:	44                   	inc    %esp
 1001425:	00 58 00             	add    %bl,0x0(%eax)
 1001428:	00 00                	add    %al,(%eax)
 100142a:	00 00                	add    %al,(%eax)
 100142c:	69 00 57 00 69 00    	imul   $0x690057,(%eax),%eax
 1001432:	6e                   	outsb  %ds:(%esi),(%dx)
 1001433:	00 64 00 6f          	add    %ah,0x6f(%eax,%eax,1)
 1001437:	00 77 00             	add    %dh,0x0(%edi)
 100143a:	50                   	push   %eax
 100143b:	00 6f 00             	add    %ch,0x0(%edi)
 100143e:	73 00                	jae    0x1001440
 1001440:	59                   	pop    %ecx
 1001441:	00 00                	add    %al,(%eax)
 1001443:	00 69 00             	add    %ch,0x0(%ecx)
 1001446:	57                   	push   %edi
 1001447:	00 69 00             	add    %ch,0x0(%ecx)
 100144a:	6e                   	outsb  %ds:(%esi),(%dx)
 100144b:	00 64 00 6f          	add    %ah,0x6f(%eax,%eax,1)
 100144f:	00 77 00             	add    %dh,0x0(%edi)
 1001452:	50                   	push   %eax
 1001453:	00 6f 00             	add    %ch,0x0(%edi)
 1001456:	73 00                	jae    0x1001458
 1001458:	58                   	pop    %eax
 1001459:	00 00                	add    %al,(%eax)
 100145b:	00 66 00             	add    %ah,0x0(%esi)
 100145e:	4d                   	dec    %ebp
 100145f:	00 4c 00 45          	add    %cl,0x45(%eax,%eax,1)
 1001463:	00 5f 00             	add    %bl,0x0(%edi)
 1001466:	69 00 73 00 5f 00    	imul   $0x5f0073,(%eax),%eax
 100146c:	62 00                	bound  %eax,(%eax)
 100146e:	72 00                	jb     0x1001470
 1001470:	6f                   	outsl  %ds:(%esi),(%dx)
 1001471:	00 6b 00             	add    %ch,0x0(%ebx)
 1001474:	65 00 6e 00          	add    %ch,%gs:0x0(%esi)
 1001478:	00 00                	add    %al,(%eax)
 100147a:	00 00                	add    %al,(%eax)
 100147c:	69 00 4d 00 61 00    	imul   $0x61004d,(%eax),%eax
 1001482:	72 00                	jb     0x1001484
 1001484:	67 00 69 00          	add    %ch,0x0(%bx,%di)
 1001488:	6e                   	outsb  %ds:(%esi),(%dx)
 1001489:	00 52 00             	add    %dl,0x0(%edx)
 100148c:	69 00 67 00 68 00    	imul   $0x680067,(%eax),%eax
 1001492:	74 00                	je     0x1001494
 1001494:	00 00                	add    %al,(%eax)
 1001496:	00 00                	add    %al,(%eax)
 1001498:	69 00 4d 00 61 00    	imul   $0x61004d,(%eax),%eax
 100149e:	72 00                	jb     0x10014a0
 10014a0:	67 00 69 00          	add    %ch,0x0(%bx,%di)
 10014a4:	6e                   	outsb  %ds:(%esi),(%dx)
 10014a5:	00 4c 00 65          	add    %cl,0x65(%eax,%eax,1)
 10014a9:	00 66 00             	add    %ah,0x0(%esi)
 10014ac:	74 00                	je     0x10014ae
 10014ae:	00 00                	add    %al,(%eax)
 10014b0:	69 00 4d 00 61 00    	imul   $0x61004d,(%eax),%eax
 10014b6:	72 00                	jb     0x10014b8
 10014b8:	67 00 69 00          	add    %ch,0x0(%bx,%di)
 10014bc:	6e                   	outsb  %ds:(%esi),(%dx)
 10014bd:	00 42 00             	add    %al,0x0(%edx)
 10014c0:	6f                   	outsl  %ds:(%esi),(%dx)
 10014c1:	00 74 00 74          	add    %dh,0x74(%eax,%eax,1)
 10014c5:	00 6f 00             	add    %ch,0x0(%edi)
 10014c8:	6d                   	insl   (%dx),%es:(%edi)
 10014c9:	00 00                	add    %al,(%eax)
 10014cb:	00 69 00             	add    %ch,0x0(%ecx)
 10014ce:	4d                   	dec    %ebp
 10014cf:	00 61 00             	add    %ah,0x0(%ecx)
 10014d2:	72 00                	jb     0x10014d4
 10014d4:	67 00 69 00          	add    %ch,0x0(%bx,%di)
 10014d8:	6e                   	outsb  %ds:(%esi),(%dx)
 10014d9:	00 54 00 6f          	add    %dl,0x6f(%eax,%eax,1)
 10014dd:	00 70 00             	add    %dh,0x0(%eax)
 10014e0:	00 00                	add    %al,(%eax)
 10014e2:	00 00                	add    %al,(%eax)
 10014e4:	73 00                	jae    0x10014e6
 10014e6:	7a 00                	jp     0x10014e8
 10014e8:	54                   	push   %esp
 10014e9:	00 72 00             	add    %dh,0x0(%edx)
 10014ec:	61                   	popa   
 10014ed:	00 69 00             	add    %ch,0x0(%ecx)
 10014f0:	6c                   	insb   (%dx),%es:(%edi)
 10014f1:	00 65 00             	add    %ah,0x0(%ebp)
 10014f4:	72 00                	jb     0x10014f6
 10014f6:	00 00                	add    %al,(%eax)
 10014f8:	73 00                	jae    0x10014fa
 10014fa:	7a 00                	jp     0x10014fc
 10014fc:	48                   	dec    %eax
 10014fd:	00 65 00             	add    %ah,0x0(%ebp)
 1001500:	61                   	popa   
 1001501:	00 64 00 65          	add    %ah,0x65(%eax,%eax,1)
 1001505:	00 72 00             	add    %dh,0x0(%edx)
 1001508:	00 00                	add    %al,(%eax)
 100150a:	00 00                	add    %al,(%eax)
 100150c:	6c                   	insb   (%dx),%es:(%edi)
 100150d:	00 66 00             	add    %ah,0x0(%esi)
 1001510:	46                   	inc    %esi
 1001511:	00 61 00             	add    %ah,0x0(%ecx)
 1001514:	63 00                	arpl   %ax,(%eax)
 1001516:	65 00 4e 00          	add    %cl,%gs:0x0(%esi)
 100151a:	61                   	popa   
 100151b:	00 6d 00             	add    %ch,0x0(%ebp)
 100151e:	65 00 00             	add    %al,%gs:(%eax)
 1001521:	00 00                	add    %al,(%eax)
 1001523:	00 66 00             	add    %ah,0x0(%esi)
 1001526:	53                   	push   %ebx
 1001527:	00 61 00             	add    %ah,0x0(%ecx)
 100152a:	76 00                	jbe    0x100152c
 100152c:	65 00 57 00          	add    %dl,%gs:0x0(%edi)
 1001530:	69 00 6e 00 64 00    	imul   $0x64006e,(%eax),%eax
 1001536:	6f                   	outsl  %ds:(%esi),(%dx)
 1001537:	00 77 00             	add    %dh,0x0(%edi)
 100153a:	50                   	push   %eax
 100153b:	00 6f 00             	add    %ch,0x0(%edi)
 100153e:	73 00                	jae    0x1001540
 1001540:	69 00 74 00 69 00    	imul   $0x690074,(%eax),%eax
 1001546:	6f                   	outsl  %ds:(%esi),(%dx)
 1001547:	00 6e 00             	add    %ch,0x0(%esi)
 100154a:	73 00                	jae    0x100154c
 100154c:	00 00                	add    %al,(%eax)
 100154e:	00 00                	add    %al,(%eax)
 1001550:	53                   	push   %ebx
 1001551:	00 74 00 61          	add    %dh,0x61(%eax,%eax,1)
 1001555:	00 74 00 75          	add    %dh,0x75(%eax,%eax,1)
 1001559:	00 73 00             	add    %dh,0x0(%ebx)
 100155c:	42                   	inc    %edx
 100155d:	00 61 00             	add    %ah,0x0(%ecx)
 1001560:	72 00                	jb     0x1001562
 1001562:	00 00                	add    %al,(%eax)
 1001564:	66                   	data16
 1001565:	00 57 00             	add    %dl,0x0(%edi)
 1001568:	72 00                	jb     0x100156a
 100156a:	61                   	popa   
 100156b:	00 70 00             	add    %dh,0x0(%eax)
 100156e:	00 00                	add    %al,(%eax)
 1001570:	69 00 50 00 6f 00    	imul   $0x6f0050,(%eax),%eax
 1001576:	69 00 6e 00 74 00    	imul   $0x74006e,(%eax),%eax
 100157c:	53                   	push   %ebx
 100157d:	00 69 00             	add    %ch,0x0(%ecx)
 1001580:	7a 00                	jp     0x1001582
 1001582:	65 00 00             	add    %al,%gs:(%eax)
 1001585:	00 00                	add    %al,(%eax)
 1001587:	00 6c 00 66          	add    %ch,0x66(%eax,%eax,1)
 100158b:	00 50 00             	add    %dl,0x0(%eax)
 100158e:	69 00 74 00 63 00    	imul   $0x630074,(%eax),%eax
 1001594:	68 00 41 00 6e       	push   $0x6e004100
 1001599:	00 64 00 46          	add    %ah,0x46(%eax,%eax,1)
 100159d:	00 61 00             	add    %ah,0x0(%ecx)
 10015a0:	6d                   	insl   (%dx),%es:(%edi)
 10015a1:	00 69 00             	add    %ch,0x0(%ecx)
 10015a4:	6c                   	insb   (%dx),%es:(%edi)
 10015a5:	00 79 00             	add    %bh,0x0(%ecx)
 10015a8:	00 00                	add    %al,(%eax)
 10015aa:	00 00                	add    %al,(%eax)
 10015ac:	6c                   	insb   (%dx),%es:(%edi)
 10015ad:	00 66 00             	add    %ah,0x0(%esi)
 10015b0:	51                   	push   %ecx
 10015b1:	00 75 00             	add    %dh,0x0(%ebp)
 10015b4:	61                   	popa   
 10015b5:	00 6c 00 69          	add    %ch,0x69(%eax,%eax,1)
 10015b9:	00 74 00 79          	add    %dh,0x79(%eax,%eax,1)
 10015bd:	00 00                	add    %al,(%eax)
 10015bf:	00 6c 00 66          	add    %ch,0x66(%eax,%eax,1)
 10015c3:	00 43 00             	add    %al,0x0(%ebx)
 10015c6:	6c                   	insb   (%dx),%es:(%edi)
 10015c7:	00 69 00             	add    %ch,0x0(%ecx)
 10015ca:	70 00                	jo     0x10015cc
 10015cc:	50                   	push   %eax
 10015cd:	00 72 00             	add    %dh,0x0(%edx)
 10015d0:	65 00 63 00          	add    %ah,%gs:0x0(%ebx)
 10015d4:	69 00 73 00 69 00    	imul   $0x690073,(%eax),%eax
 10015da:	6f                   	outsl  %ds:(%esi),(%dx)
 10015db:	00 6e 00             	add    %ch,0x0(%esi)
 10015de:	00 00                	add    %al,(%eax)
 10015e0:	6c                   	insb   (%dx),%es:(%edi)
 10015e1:	00 66 00             	add    %ah,0x0(%esi)
 10015e4:	4f                   	dec    %edi
 10015e5:	00 75 00             	add    %dh,0x0(%ebp)
 10015e8:	74 00                	je     0x10015ea
 10015ea:	50                   	push   %eax
 10015eb:	00 72 00             	add    %dh,0x0(%edx)
 10015ee:	65 00 63 00          	add    %ah,%gs:0x0(%ebx)
 10015f2:	69 00 73 00 69 00    	imul   $0x690073,(%eax),%eax
 10015f8:	6f                   	outsl  %ds:(%esi),(%dx)
 10015f9:	00 6e 00             	add    %ch,0x0(%esi)
 10015fc:	00 00                	add    %al,(%eax)
 10015fe:	00 00                	add    %al,(%eax)
 1001600:	6c                   	insb   (%dx),%es:(%edi)
 1001601:	00 66 00             	add    %ah,0x0(%esi)
 1001604:	43                   	inc    %ebx
 1001605:	00 68 00             	add    %ch,0x0(%eax)
 1001608:	61                   	popa   
 1001609:	00 72 00             	add    %dh,0x0(%edx)
 100160c:	53                   	push   %ebx
 100160d:	00 65 00             	add    %ah,0x0(%ebp)
 1001610:	74 00                	je     0x1001612
 1001612:	00 00                	add    %al,(%eax)
 1001614:	6c                   	insb   (%dx),%es:(%edi)
 1001615:	00 66 00             	add    %ah,0x0(%esi)
 1001618:	53                   	push   %ebx
 1001619:	00 74 00 72          	add    %dh,0x72(%eax,%eax,1)
 100161d:	00 69 00             	add    %ch,0x0(%ecx)
 1001620:	6b 00 65             	imul   $0x65,(%eax),%eax
 1001623:	00 4f 00             	add    %cl,0x0(%edi)
 1001626:	75 00                	jne    0x1001628
 1001628:	74 00                	je     0x100162a
 100162a:	00 00                	add    %al,(%eax)
 100162c:	6c                   	insb   (%dx),%es:(%edi)
 100162d:	00 66 00             	add    %ah,0x0(%esi)
 1001630:	55                   	push   %ebp
 1001631:	00 6e 00             	add    %ch,0x0(%esi)
 1001634:	64 00 65 00          	add    %ah,%fs:0x0(%ebp)
 1001638:	72 00                	jb     0x100163a
 100163a:	6c                   	insb   (%dx),%es:(%edi)
 100163b:	00 69 00             	add    %ch,0x0(%ecx)
 100163e:	6e                   	outsb  %ds:(%esi),(%dx)
 100163f:	00 65 00             	add    %ah,0x0(%ebp)
 1001642:	00 00                	add    %al,(%eax)
 1001644:	6c                   	insb   (%dx),%es:(%edi)
 1001645:	00 66 00             	add    %ah,0x0(%esi)
 1001648:	49                   	dec    %ecx
 1001649:	00 74 00 61          	add    %dh,0x61(%eax,%eax,1)
 100164d:	00 6c 00 69          	add    %ch,0x69(%eax,%eax,1)
 1001651:	00 63 00             	add    %ah,0x0(%ebx)
 1001654:	00 00                	add    %al,(%eax)
 1001656:	00 00                	add    %al,(%eax)
 1001658:	6c                   	insb   (%dx),%es:(%edi)
 1001659:	00 66 00             	add    %ah,0x0(%esi)
 100165c:	57                   	push   %edi
 100165d:	00 65 00             	add    %ah,0x0(%ebp)
 1001660:	69 00 67 00 68 00    	imul   $0x680067,(%eax),%eax
 1001666:	74 00                	je     0x1001668
 1001668:	00 00                	add    %al,(%eax)
 100166a:	00 00                	add    %al,(%eax)
 100166c:	6c                   	insb   (%dx),%es:(%edi)
 100166d:	00 66 00             	add    %ah,0x0(%esi)
 1001670:	4f                   	dec    %edi
 1001671:	00 72 00             	add    %dh,0x0(%edx)
 1001674:	69 00 65 00 6e 00    	imul   $0x6e0065,(%eax),%eax
 100167a:	74 00                	je     0x100167c
 100167c:	61                   	popa   
 100167d:	00 74 00 69          	add    %dh,0x69(%eax,%eax,1)
 1001681:	00 6f 00             	add    %ch,0x0(%edi)
 1001684:	6e                   	outsb  %ds:(%esi),(%dx)
 1001685:	00 00                	add    %al,(%eax)
 1001687:	00 6c 00 66          	add    %ch,0x66(%eax,%eax,1)
 100168b:	00 45 00             	add    %al,0x0(%ebp)
 100168e:	73 00                	jae    0x1001690
 1001690:	63 00                	arpl   %ax,(%eax)
 1001692:	61                   	popa   
 1001693:	00 70 00             	add    %dh,0x0(%eax)
 1001696:	65 00 6d 00          	add    %ch,%gs:0x0(%ebp)
 100169a:	65 00 6e 00          	add    %ch,%gs:0x0(%esi)
 100169e:	74 00                	je     0x10016a0
 10016a0:	00 00                	add    %al,(%eax)
 10016a2:	00 00                	add    %al,(%eax)
 10016a4:	53                   	push   %ebx
 10016a5:	00 6f 00             	add    %ch,0x0(%edi)
 10016a8:	66                   	data16
 10016a9:	00 74 00 77          	add    %dh,0x77(%eax,%eax,1)
 10016ad:	00 61 00             	add    %ah,0x0(%ecx)
 10016b0:	72 00                	jb     0x10016b2
 10016b2:	65 00 5c 00 4d       	add    %bl,%gs:0x4d(%eax,%eax,1)
 10016b7:	00 69 00             	add    %ch,0x0(%ecx)
 10016ba:	63 00                	arpl   %ax,(%eax)
 10016bc:	72 00                	jb     0x10016be
 10016be:	6f                   	outsl  %ds:(%esi),(%dx)
 10016bf:	00 73 00             	add    %dh,0x0(%ebx)
 10016c2:	6f                   	outsl  %ds:(%esi),(%dx)
 10016c3:	00 66 00             	add    %ah,0x0(%esi)
 10016c6:	74 00                	je     0x10016c8
 10016c8:	5c                   	pop    %esp
 10016c9:	00 4e 00             	add    %cl,0x0(%esi)
 10016cc:	6f                   	outsl  %ds:(%esi),(%dx)
 10016cd:	00 74 00 65          	add    %dh,0x65(%eax,%eax,1)
 10016d1:	00 70 00             	add    %dh,0x0(%eax)
 10016d4:	61                   	popa   
 10016d5:	00 64 00 00          	add    %ah,0x0(%eax,%eax,1)
 10016d9:	00 00                	add    %al,(%eax)
 10016db:	00 4c 00 75          	add    %cl,0x75(%eax,%eax,1)
 10016df:	00 63 00             	add    %ah,0x0(%ebx)
 10016e2:	69 00 64 00 61 00    	imul   $0x610064,(%eax),%eax
 10016e8:	20 00                	and    %al,(%eax)
 10016ea:	43                   	inc    %ebx
 10016eb:	00 6f 00             	add    %ch,0x0(%edi)
 10016ee:	6e                   	outsb  %ds:(%esi),(%dx)
 10016ef:	00 73 00             	add    %dh,0x0(%ebx)
 10016f2:	6f                   	outsl  %ds:(%esi),(%dx)
 10016f3:	00 6c 00 65          	add    %ch,0x65(%eax,%eax,1)
 10016f7:	00 00                	add    %al,(%eax)
 10016f9:	00 00                	add    %al,(%eax)
 10016fb:	00 4f 00             	add    %cl,0x0(%edi)
 10016fe:	75 00                	jne    0x1001700
 1001700:	74 00                	je     0x1001702
 1001702:	20 00                	and    %al,(%eax)
 1001704:	6f                   	outsl  %ds:(%esi),(%dx)
 1001705:	00 66 00             	add    %ah,0x0(%esi)
 1001708:	20 00                	and    %al,(%eax)
 100170a:	52                   	push   %edx
 100170b:	00 43 00             	add    %al,0x0(%ebx)
 100170e:	20 00                	and    %al,(%eax)
 1001710:	73 00                	jae    0x1001712
 1001712:	74 00                	je     0x1001714
 1001714:	72 00                	jb     0x1001716
 1001716:	69 00 6e 00 67 00    	imul   $0x67006e,(%eax),%eax
 100171c:	20 00                	and    %al,(%eax)
 100171e:	73 00                	jae    0x1001720
 1001720:	70 00                	jo     0x1001722
 1001722:	61                   	popa   
 1001723:	00 63 00             	add    %ah,0x0(%ebx)
 1001726:	65 00 21             	add    %ah,%gs:(%ecx)
 1001729:	00 21                	add    %ah,(%ecx)
 100172b:	00 00                	add    %al,(%eax)
 100172d:	00 00                	add    %al,(%eax)
 100172f:	00 44 00 45          	add    %al,0x45(%eax,%eax,1)
 1001733:	00 56 00             	add    %dl,0x0(%esi)
 1001736:	20 00                	and    %al,(%eax)
 1001738:	45                   	inc    %ebp
 1001739:	00 72 00             	add    %dh,0x0(%edx)
 100173c:	72 00                	jb     0x100173e
 100173e:	6f                   	outsl  %ds:(%esi),(%dx)
 100173f:	00 72 00             	add    %dh,0x0(%edx)
 1001742:	21 00                	and    %eax,(%eax)
 1001744:	00 00                	add    %al,(%eax)
 1001746:	00 00                	add    %al,(%eax)
 1001748:	53                   	push   %ebx
 1001749:	00 6c 00 69          	add    %ch,0x69(%eax,%eax,1)
 100174d:	00 70 00             	add    %dh,0x0(%eax)
 1001750:	55                   	push   %ebp
 1001751:	00 70 00             	add    %dh,0x0(%eax)
 1001754:	41                   	inc    %ecx
 1001755:	00 63 00             	add    %ah,0x0(%ebx)
 1001758:	63 00                	arpl   %ax,(%eax)
 100175a:	00 00                	add    %al,(%eax)
 100175c:	2f                   	das    
 100175d:	00 2e                	add    %ch,(%esi)
 100175f:	00 53 00             	add    %dl,0x0(%ebx)
 1001762:	45                   	inc    %ebp
 1001763:	00 54 00 55          	add    %dl,0x55(%eax,%eax,1)
 1001767:	00 50 00             	add    %dl,0x0(%eax)
 100176a:	00 00                	add    %al,(%eax)
 100176c:	2f                   	das    
 100176d:	00 50 00             	add    %dl,0x0(%eax)
 1001770:	00 00                	add    %al,(%eax)
 1001772:	00 00                	add    %al,(%eax)
 1001774:	2f                   	das    
 1001775:	00 50 00             	add    %dl,0x0(%eax)
 1001778:	54                   	push   %esp
 1001779:	00 00                	add    %al,(%eax)
 100177b:	00 2a                	add    %ch,(%edx)
 100177d:	00 2e                	add    %ch,(%esi)
 100177f:	00 2a                	add    %ch,(%edx)
 1001781:	00 00                	add    %al,(%eax)
 1001783:	00 2f                	add    %ch,(%edi)
 1001785:	00 57 00             	add    %dl,0x0(%edi)
 1001788:	00 00                	add    %al,(%eax)
 100178a:	00 00                	add    %al,(%eax)
 100178c:	2f                   	das    
 100178d:	00 41 00             	add    %al,0x0(%ecx)
 1001790:	00 00                	add    %al,(%eax)
 1001792:	00 00                	add    %al,(%eax)
 1001794:	45                   	inc    %ebp
 1001795:	00 64 00 69          	add    %ah,0x69(%eax,%eax,1)
 1001799:	00 74 00 00          	add    %dh,0x0(%eax,%eax,1)
 100179d:	00 00                	add    %al,(%eax)
 100179f:	00 4d 00             	add    %cl,0x0(%ebp)
 10017a2:	61                   	popa   
 10017a3:	00 69 00             	add    %ch,0x0(%ecx)
 10017a6:	6e                   	outsb  %ds:(%esi),(%dx)
 10017a7:	00 41 00             	add    %al,0x0(%ecx)
 10017aa:	63 00                	arpl   %ax,(%eax)
 10017ac:	63 00                	arpl   %ax,(%eax)
 10017ae:	00 00                	add    %al,(%eax)
 10017b0:	63 00                	arpl   %ax,(%eax)
 10017b2:	6f                   	outsl  %ds:(%esi),(%dx)
 10017b3:	00 6d 00             	add    %ch,0x0(%ebp)
 10017b6:	6d                   	insl   (%dx),%es:(%edi)
 10017b7:	00 64 00 6c          	add    %ah,0x6c(%eax,%eax,1)
 10017bb:	00 67 00             	add    %ah,0x0(%edi)
 10017be:	5f                   	pop    %edi
 10017bf:	00 68 00             	add    %ch,0x0(%eax)
 10017c2:	65 00 6c 00 70       	add    %ch,%gs:0x70(%eax,%eax,1)
 10017c7:	00 00                	add    %al,(%eax)
 10017c9:	00 00                	add    %al,(%eax)
 10017cb:	00 63 00             	add    %ah,0x0(%ebx)
 10017ce:	6f                   	outsl  %ds:(%esi),(%dx)
 10017cf:	00 6d 00             	add    %ch,0x0(%ebp)
 10017d2:	6d                   	insl   (%dx),%es:(%edi)
 10017d3:	00 64 00 6c          	add    %ah,0x6c(%eax,%eax,1)
 10017d7:	00 67 00             	add    %ah,0x0(%edi)
 10017da:	5f                   	pop    %edi
 10017db:	00 46 00             	add    %al,0x0(%esi)
 10017de:	69 00 6e 00 64 00    	imul   $0x64006e,(%eax),%eax
 10017e4:	52                   	push   %edx
 10017e5:	00 65 00             	add    %ah,0x0(%ebp)
 10017e8:	70 00                	jo     0x10017ea
 10017ea:	6c                   	insb   (%dx),%es:(%edi)
 10017eb:	00 61 00             	add    %ah,0x0(%ecx)
 10017ee:	63 00                	arpl   %ax,(%eax)
 10017f0:	65 00 00             	add    %al,%gs:(%eax)
 10017f3:	00 2e                	add    %ch,(%esi)
 10017f5:	00 74 00 78          	add    %dh,0x78(%eax,%eax,1)
 10017f9:	00 74 00 00          	add    %dh,0x0(%eax,%eax,1)
 10017fd:	00 00                	add    %al,(%eax)
 10017ff:	00 ff                	add    %bh,%bh
 1001801:	ff                   	(bad)  
 1001802:	ff                   	(bad)  
 1001803:	ff c8                	dec    %eax
 1001805:	55                   	push   %ebp
 1001806:	00 01                	add    %al,(%ecx)
 1001808:	cc                   	int3   
 1001809:	55                   	push   %ebp
 100180a:	00 01                	add    %al,(%ecx)
 100180c:	20 00                	and    %al,(%eax)
 100180e:	00 00                	add    %al,(%eax)
 1001810:	e9 03 00 00 1e       	jmp    0x1f001818
 1001815:	00 00                	add    %al,(%eax)
 1001817:	00 e9                	add    %ch,%cl
 1001819:	03 00                	add    (%eax),%eax
 100181b:	00 21                	add    %ah,(%ecx)
 100181d:	00 00                	add    %al,(%eax)
 100181f:	00 e8                	add    %ch,%al
 1001821:	03 00                	add    (%eax),%eax
 1001823:	00 1f                	add    %bl,(%edi)
 1001825:	00 00                	add    %al,(%eax)
 1001827:	00 e8                	add    %ch,%al
 1001829:	03 00                	add    (%eax),%eax
	...
 1001833:	00 20                	add    %ah,(%eax)
 1001835:	00 00                	add    %al,(%eax)
 1001837:	00 0d 00 0a 00 00    	add    %cl,0xa00
 100183d:	00 00                	add    %al,(%eax)
 100183f:	00 0e                	add    %cl,(%esi)
 1001841:	20 00                	and    %al,(%eax)
 1001843:	00 0f                	add    %cl,(%edi)
 1001845:	20 00                	and    %al,(%eax)
 1001847:	00 68 68             	add    %ch,0x68(%eax)
 100184a:	63 74 72 6c          	arpl   %si,0x6c(%edx,%esi,2)
 100184e:	2e 6f                	outsl  %cs:(%esi),(%dx)
 1001850:	63 78 00             	arpl   %di,0x0(%eax)
 1001853:	00 43 4c             	add    %al,0x4c(%ebx)
 1001856:	53                   	push   %ebx
 1001857:	49                   	dec    %ecx
 1001858:	44                   	inc    %esp
 1001859:	5c                   	pop    %esp
 100185a:	7b 41                	jnp    0x100189d
 100185c:	44                   	inc    %esp
 100185d:	42                   	inc    %edx
 100185e:	38 38                	cmp    %bh,(%eax)
 1001860:	30 41 36             	xor    %al,0x36(%ecx)
 1001863:	2d 44 38 46 46       	sub    $0x46463844,%eax
 1001868:	2d 31 31 43 46       	sub    $0x46433131,%eax
 100186d:	2d 39 33 37 37       	sub    $0x37373339,%eax
 1001872:	2d 30 30 41 41       	sub    $0x41413030,%eax
 1001877:	30 30                	xor    %dh,(%eax)
 1001879:	33 42 37             	xor    0x37(%edx),%eax
 100187c:	41                   	inc    %ecx
 100187d:	31 31                	xor    %esi,(%ecx)
 100187f:	7d 5c                	jge    0x10018dd
 1001881:	49                   	dec    %ecx
 1001882:	6e                   	outsb  %ds:(%esi),(%dx)
 1001883:	70 72                	jo     0x10018f7
 1001885:	6f                   	outsl  %ds:(%esi),(%dx)
 1001886:	63 53 65             	arpl   %dx,0x65(%ebx)
 1001889:	72 76                	jb     0x1001901
 100188b:	65                   	gs
 100188c:	72 33                	jb     0x10018c1
 100188e:	32 00                	xor    (%eax),%al
	...
 1001898:	ff                   	(bad)  
 1001899:	ff                   	(bad)  
 100189a:	ff                   	(bad)  
 100189b:	ff 2a                	ljmp   *(%edx)
 100189d:	75 00                	jne    0x100189f
 100189f:	01 3e                	add    %edi,(%esi)
 10018a1:	75 00                	jne    0x10018a3
 10018a3:	01 00                	add    %eax,(%eax)
 10018a5:	00 00                	add    %al,(%eax)
 10018a7:	00 48 00             	add    %cl,0x0(%eax)
	...
 10018e2:	00 00                	add    %al,(%eax)
 10018e4:	04 96                	add    $0x96,%al
 10018e6:	00 01                	add    %al,(%ecx)
 10018e8:	20 19                	and    %bl,(%ecx)
 10018ea:	00 01                	add    %al,(%ecx)
 10018ec:	01 00                	add    %eax,(%eax)
 10018ee:	00 00                	add    %al,(%eax)
 10018f0:	52                   	push   %edx
 10018f1:	53                   	push   %ebx
 10018f2:	44                   	inc    %esp
 10018f3:	53                   	push   %ebx
 10018f4:	2c 16                	sub    $0x16,%al
 10018f6:	6f                   	outsl  %ds:(%esi),(%dx)
 10018f7:	50                   	push   %eax
 10018f8:	a5                   	movsl  %ds:(%esi),%es:(%edi)
 10018f9:	c6                   	(bad)  
 10018fa:	3b 45 8f             	cmp    -0x71(%ebp),%eax
 10018fd:	9e                   	sahf   
 10018fe:	db 55 af             	fistl  -0x51(%ebp)
 1001901:	72 cd                	jb     0x10018d0
 1001903:	9b                   	fwait
 1001904:	01 00                	add    %eax,(%eax)
 1001906:	00 00                	add    %al,(%eax)
 1001908:	6e                   	outsb  %ds:(%esi),(%dx)
 1001909:	6f                   	outsl  %ds:(%esi),(%dx)
 100190a:	74 65                	je     0x1001971
 100190c:	70 61                	jo     0x100196f
 100190e:	64                   	fs
 100190f:	2e 70 64             	jo,pn  0x1001976
 1001912:	62 00                	bound  %eax,(%eax)
	...
 1001920:	ba 75 00 00 00       	mov    $0x75,%edx
 1001925:	00 00                	add    %al,(%eax)
 1001927:	00 00                	add    %al,(%eax)
 1001929:	a1 a8 a4 00 01       	mov    0x100a4a8,%eax
 100192e:	85 c0                	test   %eax,%eax
 1001930:	56                   	push   %esi
 1001931:	8b 35 d4 10 00 01    	mov    0x10010d4,%esi
 1001937:	74 03                	je     0x100193c
 1001939:	50                   	push   %eax
 100193a:	ff d6                	call   *%esi
 100193c:	a1 ac a4 00 01       	mov    0x100a4ac,%eax
 1001941:	85 c0                	test   %eax,%eax
 1001943:	74 03                	je     0x1001948
 1001945:	50                   	push   %eax
 1001946:	ff d6                	call   *%esi
 1001948:	83 25 a8 a4 00 01 00 	andl   $0x0,0x100a4a8
 100194f:	83 25 ac a4 00 01 00 	andl   $0x0,0x100a4ac
 1001956:	5e                   	pop    %esi
 1001957:	c3                   	ret    
 1001958:	cc                   	int3   
 1001959:	cc                   	int3   
 100195a:	cc                   	int3   
 100195b:	cc                   	int3   
 100195c:	cc                   	int3   
 100195d:	8b ff                	mov    %edi,%edi
 100195f:	55                   	push   %ebp
 1001960:	8b ec                	mov    %esp,%ebp
 1001962:	51                   	push   %ecx
 1001963:	6a 02                	push   $0x2
 1001965:	8d 45 fc             	lea    -0x4(%ebp),%eax
 1001968:	50                   	push   %eax
 1001969:	6a 0d                	push   $0xd
 100196b:	68 00 04 00 00       	push   $0x400
 1001970:	c7 05 e4 a4 00 01 63 	movl   $0x1005f63,0x100a4e4
 1001977:	5f 00 01 
 100197a:	c7 05 ec a4 00 01 0c 	movl   $0xc,0x100a4ec
 1001981:	00 00 00 
 1001984:	ff 15 d8 10 00 01    	call   *0x10010d8
 100198a:	66 83 7d fc 31       	cmpw   $0x31,-0x4(%ebp)
 100198f:	75 20                	jne    0x10019b1
 1001991:	b8 e8 03 00 00       	mov    $0x3e8,%eax
 1001996:	a3 d0 a4 00 01       	mov    %eax,0x100a4d0
 100199b:	a3 d8 a4 00 01       	mov    %eax,0x100a4d8
 10019a0:	c7 05 b0 a4 00 01 06 	movl   $0xa006,0x100a4b0
 10019a7:	a0 00 00 
 10019aa:	b8 ee 02 00 00       	mov    $0x2ee,%eax
 10019af:	eb 1e                	jmp    0x10019cf
 10019b1:	b8 c4 09 00 00       	mov    $0x9c4,%eax
 10019b6:	a3 d0 a4 00 01       	mov    %eax,0x100a4d0
 10019bb:	a3 d8 a4 00 01       	mov    %eax,0x100a4d8
 10019c0:	c7 05 b0 a4 00 01 0a 	movl   $0xa00a,0x100a4b0
 10019c7:	a0 00 00 
 10019ca:	b8 d0 07 00 00       	mov    $0x7d0,%eax
 10019cf:	a3 cc a4 00 01       	mov    %eax,0x100a4cc
 10019d4:	a3 d4 a4 00 01       	mov    %eax,0x100a4d4
 10019d9:	c9                   	leave  
 10019da:	c3                   	ret    
 10019db:	cc                   	int3   
 10019dc:	cc                   	int3   
 10019dd:	cc                   	int3   
 10019de:	cc                   	int3   
 10019df:	cc                   	int3   
 10019e0:	8b ff                	mov    %edi,%edi
 10019e2:	55                   	push   %ebp
 10019e3:	8b ec                	mov    %esp,%ebp
 10019e5:	6a 01                	push   $0x1
 10019e7:	6a 00                	push   $0x0
 10019e9:	ff 35 38 98 00 01    	pushl  0x1009838
 10019ef:	ff 15 24 12 00 01    	call   *0x1001224
 10019f5:	a1 40 98 00 01       	mov    0x1009840,%eax
 10019fa:	8b 4d 0c             	mov    0xc(%ebp),%ecx
 10019fd:	f7 d8                	neg    %eax
 10019ff:	1b c0                	sbb    %eax,%eax
 1001a01:	23 05 e0 a6 00 01    	and    0x100a6e0,%eax
 1001a07:	6a 01                	push   $0x1
 1001a09:	2b c8                	sub    %eax,%ecx
 1001a0b:	51                   	push   %ecx
 1001a0c:	ff 75 08             	pushl  0x8(%ebp)
 1001a0f:	6a 00                	push   $0x0
 1001a11:	6a 00                	push   $0x0
 1001a13:	ff 35 38 98 00 01    	pushl  0x1009838
 1001a19:	ff 15 20 12 00 01    	call   *0x1001220
 1001a1f:	5d                   	pop    %ebp
 1001a20:	c2 08 00             	ret    $0x8
 1001a23:	cc                   	int3   
 1001a24:	cc                   	int3   
 1001a25:	cc                   	int3   
 1001a26:	cc                   	int3   
 1001a27:	cc                   	int3   
 1001a28:	8b ff                	mov    %edi,%edi
 1001a2a:	55                   	push   %ebp
 1001a2b:	8b ec                	mov    %esp,%ebp
 1001a2d:	51                   	push   %ecx
 1001a2e:	51                   	push   %ecx
 1001a2f:	8b 45 0c             	mov    0xc(%ebp),%eax
 1001a32:	83 e8 53             	sub    $0x53,%eax
 1001a35:	56                   	push   %esi
 1001a36:	0f 84 1c 01 00 00    	je     0x1001b58
 1001a3c:	83 e8 28             	sub    $0x28,%eax
 1001a3f:	0f 84 be 00 00 00    	je     0x1001b03
 1001a45:	2d 95 00 00 00       	sub    $0x95,%eax
 1001a4a:	74 28                	je     0x1001a74
 1001a4c:	48                   	dec    %eax
 1001a4d:	0f 85 1f 01 00 00    	jne    0x1001b72
 1001a53:	6a 00                	push   $0x0
 1001a55:	6a 00                	push   $0x0
 1001a57:	68 47 01 00 00       	push   $0x147
 1001a5c:	68 01 01 00 00       	push   $0x101
 1001a61:	ff 75 08             	pushl  0x8(%ebp)
 1001a64:	ff 15 3c 12 00 01    	call   *0x100123c
 1001a6a:	a3 28 a5 00 01       	mov    %eax,0x100a528
 1001a6f:	e9 fe 00 00 00       	jmp    0x1001b72
 1001a74:	8b 35 3c 12 00 01    	mov    0x100123c,%esi
 1001a7a:	53                   	push   %ebx
 1001a7b:	57                   	push   %edi
 1001a7c:	ff 35 b4 90 00 01    	pushl  0x10090b4
 1001a82:	bb 43 01 00 00       	mov    $0x143,%ebx
 1001a87:	6a 00                	push   $0x0
 1001a89:	53                   	push   %ebx
 1001a8a:	bf 01 01 00 00       	mov    $0x101,%edi
 1001a8f:	57                   	push   %edi
 1001a90:	ff 75 08             	pushl  0x8(%ebp)
 1001a93:	ff d6                	call   *%esi
 1001a95:	ff 35 b8 90 00 01    	pushl  0x10090b8
 1001a9b:	6a 00                	push   $0x0
 1001a9d:	53                   	push   %ebx
 1001a9e:	57                   	push   %edi
 1001a9f:	ff 75 08             	pushl  0x8(%ebp)
 1001aa2:	ff d6                	call   *%esi
 1001aa4:	ff 35 bc 90 00 01    	pushl  0x10090bc
 1001aaa:	6a 00                	push   $0x0
 1001aac:	53                   	push   %ebx
 1001aad:	57                   	push   %edi
 1001aae:	ff 75 08             	pushl  0x8(%ebp)
 1001ab1:	ff d6                	call   *%esi
 1001ab3:	ff 35 c0 90 00 01    	pushl  0x10090c0
 1001ab9:	6a 00                	push   $0x0
 1001abb:	53                   	push   %ebx
 1001abc:	57                   	push   %edi
 1001abd:	ff 75 08             	pushl  0x8(%ebp)
 1001ac0:	ff d6                	call   *%esi
 1001ac2:	a1 30 90 00 01       	mov    0x1009030,%eax
 1001ac7:	8b 0d b4 90 00 01    	mov    0x10090b4,%ecx
 1001acd:	a3 28 a5 00 01       	mov    %eax,0x100a528
 1001ad2:	48                   	dec    %eax
 1001ad3:	74 16                	je     0x1001aeb
 1001ad5:	48                   	dec    %eax
 1001ad6:	74 0b                	je     0x1001ae3
 1001ad8:	48                   	dec    %eax
 1001ad9:	75 16                	jne    0x1001af1
 1001adb:	8b 0d c0 90 00 01    	mov    0x10090c0,%ecx
 1001ae1:	eb 0e                	jmp    0x1001af1
 1001ae3:	8b 0d bc 90 00 01    	mov    0x10090bc,%ecx
 1001ae9:	eb 06                	jmp    0x1001af1
 1001aeb:	8b 0d b8 90 00 01    	mov    0x10090b8,%ecx
 1001af1:	51                   	push   %ecx
 1001af2:	6a ff                	push   $0xffffffff
 1001af4:	68 4d 01 00 00       	push   $0x14d
 1001af9:	57                   	push   %edi
 1001afa:	ff 75 08             	pushl  0x8(%ebp)
 1001afd:	ff d6                	call   *%esi
 1001aff:	5f                   	pop    %edi
 1001b00:	5b                   	pop    %ebx
 1001b01:	eb 6f                	jmp    0x1001b72
 1001b03:	8b 75 10             	mov    0x10(%ebp),%esi
 1001b06:	39 75 08             	cmp    %esi,0x8(%ebp)
 1001b09:	75 28                	jne    0x1001b33
 1001b0b:	8d 45 f8             	lea    -0x8(%ebp),%eax
 1001b0e:	50                   	push   %eax
 1001b0f:	ff 15 38 12 00 01    	call   *0x1001238
 1001b15:	8d 45 f8             	lea    -0x8(%ebp),%eax
 1001b18:	50                   	push   %eax
 1001b19:	ff 75 08             	pushl  0x8(%ebp)
 1001b1c:	ff 15 34 12 00 01    	call   *0x1001234
 1001b22:	ff 75 fc             	pushl  -0x4(%ebp)
 1001b25:	ff 75 f8             	pushl  -0x8(%ebp)
 1001b28:	ff 75 08             	pushl  0x8(%ebp)
 1001b2b:	ff 15 30 12 00 01    	call   *0x1001230
 1001b31:	8b f0                	mov    %eax,%esi
 1001b33:	56                   	push   %esi
 1001b34:	ff 15 2c 12 00 01    	call   *0x100122c
 1001b3a:	3d 01 01 00 00       	cmp    $0x101,%eax
 1001b3f:	74 07                	je     0x1001b48
 1001b41:	3d 03 01 00 00       	cmp    $0x103,%eax
 1001b46:	75 2a                	jne    0x1001b72
 1001b48:	68 6c 13 00 01       	push   $0x100136c
 1001b4d:	6a 0a                	push   $0xa
 1001b4f:	ff 35 74 90 00 01    	pushl  0x1009074
 1001b55:	56                   	push   %esi
 1001b56:	eb 2e                	jmp    0x1001b86
 1001b58:	8b 75 14             	mov    0x14(%ebp),%esi
 1001b5b:	ff 76 0c             	pushl  0xc(%esi)
 1001b5e:	ff 15 2c 12 00 01    	call   *0x100122c
 1001b64:	3d 01 01 00 00       	cmp    $0x101,%eax
 1001b69:	74 0b                	je     0x1001b76
 1001b6b:	3d 03 01 00 00       	cmp    $0x103,%eax
 1001b70:	74 04                	je     0x1001b76
 1001b72:	33 c0                	xor    %eax,%eax
 1001b74:	eb 19                	jmp    0x1001b8f
 1001b76:	68 6c 13 00 01       	push   $0x100136c
 1001b7b:	6a 0c                	push   $0xc
 1001b7d:	ff 35 74 90 00 01    	pushl  0x1009074
 1001b83:	ff 76 0c             	pushl  0xc(%esi)
 1001b86:	ff 15 28 12 00 01    	call   *0x1001228
 1001b8c:	33 c0                	xor    %eax,%eax
 1001b8e:	40                   	inc    %eax
 1001b8f:	5e                   	pop    %esi
 1001b90:	c9                   	leave  
 1001b91:	c2 10 00             	ret    $0x10
 1001b94:	cc                   	int3   
 1001b95:	cc                   	int3   
 1001b96:	cc                   	int3   
 1001b97:	cc                   	int3   
 1001b98:	cc                   	int3   
 1001b99:	8b ff                	mov    %edi,%edi
 1001b9b:	55                   	push   %ebp
 1001b9c:	8b ec                	mov    %esp,%ebp
 1001b9e:	8b 45 08             	mov    0x8(%ebp),%eax
 1001ba1:	56                   	push   %esi
 1001ba2:	8b 35 40 12 00 01    	mov    0x1001240,%esi
 1001ba8:	6a 00                	push   $0x0
 1001baa:	48                   	dec    %eax
 1001bab:	50                   	push   %eax
 1001bac:	68 bb 00 00 00       	push   $0xbb
 1001bb1:	ff 35 38 98 00 01    	pushl  0x1009838
 1001bb7:	ff d6                	call   *%esi
 1001bb9:	83 f8 ff             	cmp    $0xffffffff,%eax
 1001bbc:	74 20                	je     0x1001bde
 1001bbe:	50                   	push   %eax
 1001bbf:	50                   	push   %eax
 1001bc0:	68 b1 00 00 00       	push   $0xb1
 1001bc5:	ff 35 38 98 00 01    	pushl  0x1009838
 1001bcb:	ff d6                	call   *%esi
 1001bcd:	6a 00                	push   $0x0
 1001bcf:	6a 00                	push   $0x0
 1001bd1:	68 b7 00 00 00       	push   $0xb7
 1001bd6:	ff 35 38 98 00 01    	pushl  0x1009838
 1001bdc:	ff d6                	call   *%esi
 1001bde:	5e                   	pop    %esi
 1001bdf:	5d                   	pop    %ebp
 1001be0:	c2 04 00             	ret    $0x4
 1001be3:	cc                   	int3   
 1001be4:	cc                   	int3   
 1001be5:	cc                   	int3   
 1001be6:	cc                   	int3   
 1001be7:	cc                   	int3   
 1001be8:	8b ff                	mov    %edi,%edi
 1001bea:	55                   	push   %ebp
 1001beb:	8b ec                	mov    %esp,%ebp
 1001bed:	8b 45 08             	mov    0x8(%ebp),%eax
 1001bf0:	56                   	push   %esi
 1001bf1:	33 f6                	xor    %esi,%esi
 1001bf3:	33 c9                	xor    %ecx,%ecx
 1001bf5:	eb 26                	jmp    0x1001c1d
 1001bf7:	66 83 f9 20          	cmp    $0x20,%cx
 1001bfb:	74 06                	je     0x1001c03
 1001bfd:	66 83 f9 09          	cmp    $0x9,%cx
 1001c01:	75 04                	jne    0x1001c07
 1001c03:	85 f6                	test   %esi,%esi
 1001c05:	74 1e                	je     0x1001c25
 1001c07:	66 83 f9 22          	cmp    $0x22,%cx
 1001c0b:	75 09                	jne    0x1001c16
 1001c0d:	33 c9                	xor    %ecx,%ecx
 1001c0f:	85 f6                	test   %esi,%esi
 1001c11:	0f 94 c1             	sete   %cl
 1001c14:	8b f1                	mov    %ecx,%esi
 1001c16:	50                   	push   %eax
 1001c17:	ff 15 44 12 00 01    	call   *0x1001244
 1001c1d:	66 8b 08             	mov    (%eax),%cx
 1001c20:	66 85 c9             	test   %cx,%cx
 1001c23:	75 d2                	jne    0x1001bf7
 1001c25:	5e                   	pop    %esi
 1001c26:	66 8b 08             	mov    (%eax),%cx
 1001c29:	66 83 f9 20          	cmp    $0x20,%cx
 1001c2d:	74 06                	je     0x1001c35
 1001c2f:	66 83 f9 09          	cmp    $0x9,%cx
 1001c33:	75 04                	jne    0x1001c39
 1001c35:	40                   	inc    %eax
 1001c36:	40                   	inc    %eax
 1001c37:	eb ed                	jmp    0x1001c26
 1001c39:	5d                   	pop    %ebp
 1001c3a:	c2 04 00             	ret    $0x4
 1001c3d:	cc                   	int3   
 1001c3e:	cc                   	int3   
 1001c3f:	cc                   	int3   
 1001c40:	cc                   	int3   
 1001c41:	cc                   	int3   
 1001c42:	8b ff                	mov    %edi,%edi
 1001c44:	55                   	push   %ebp
 1001c45:	8b ec                	mov    %esp,%ebp
 1001c47:	81 ec 0c 01 00 00    	sub    $0x10c,%esp
 1001c4d:	a1 04 96 00 01       	mov    0x1009604,%eax
 1001c52:	53                   	push   %ebx
 1001c53:	56                   	push   %esi
 1001c54:	8b 35 40 12 00 01    	mov    0x1001240,%esi
 1001c5a:	57                   	push   %edi
 1001c5b:	89 45 fc             	mov    %eax,-0x4(%ebp)
 1001c5e:	8d 85 f4 fe ff ff    	lea    -0x10c(%ebp),%eax
 1001c64:	50                   	push   %eax
 1001c65:	8d 85 f8 fe ff ff    	lea    -0x108(%ebp),%eax
 1001c6b:	50                   	push   %eax
 1001c6c:	68 b0 00 00 00       	push   $0xb0
 1001c71:	ff 35 38 98 00 01    	pushl  0x1009838
 1001c77:	ff d6                	call   *%esi
 1001c79:	6a 00                	push   $0x0
 1001c7b:	ff b5 f8 fe ff ff    	pushl  -0x108(%ebp)
 1001c81:	68 c9 00 00 00       	push   $0xc9
 1001c86:	ff 35 38 98 00 01    	pushl  0x1009838
 1001c8c:	ff d6                	call   *%esi
 1001c8e:	8b f8                	mov    %eax,%edi
 1001c90:	6a 00                	push   $0x0
 1001c92:	47                   	inc    %edi
 1001c93:	8d 47 ff             	lea    -0x1(%edi),%eax
 1001c96:	50                   	push   %eax
 1001c97:	68 bb 00 00 00       	push   $0xbb
 1001c9c:	ff 35 38 98 00 01    	pushl  0x1009838
 1001ca2:	ff d6                	call   *%esi
 1001ca4:	8b 9d f8 fe ff ff    	mov    -0x108(%ebp),%ebx
 1001caa:	2b d8                	sub    %eax,%ebx
 1001cac:	43                   	inc    %ebx
 1001cad:	83 7d 08 00          	cmpl   $0x0,0x8(%ebp)
 1001cb1:	75 10                	jne    0x1001cc3
 1001cb3:	3b 1d 24 96 00 01    	cmp    0x1009624,%ebx
 1001cb9:	75 08                	jne    0x1001cc3
 1001cbb:	3b 3d 20 96 00 01    	cmp    0x1009620,%edi
 1001cc1:	74 39                	je     0x1001cfc
 1001cc3:	53                   	push   %ebx
 1001cc4:	57                   	push   %edi
 1001cc5:	ff 35 c8 90 00 01    	pushl  0x10090c8
 1001ccb:	8d 85 fc fe ff ff    	lea    -0x104(%ebp),%eax
 1001cd1:	6a 7f                	push   $0x7f
 1001cd3:	50                   	push   %eax
 1001cd4:	ff 15 14 13 00 01    	call   *0x1001314
 1001cda:	a1 34 98 00 01       	mov    0x1009834,%eax
 1001cdf:	66 83 65 fa 00       	andw   $0x0,-0x6(%ebp)
 1001ce4:	83 c4 14             	add    $0x14,%esp
 1001ce7:	85 c0                	test   %eax,%eax
 1001ce9:	74 11                	je     0x1001cfc
 1001ceb:	8d 8d fc fe ff ff    	lea    -0x104(%ebp),%ecx
 1001cf1:	51                   	push   %ecx
 1001cf2:	6a 01                	push   $0x1
 1001cf4:	68 0b 04 00 00       	push   $0x40b
 1001cf9:	50                   	push   %eax
 1001cfa:	ff d6                	call   *%esi
 1001cfc:	8b 4d fc             	mov    -0x4(%ebp),%ecx
 1001cff:	89 3d 20 96 00 01    	mov    %edi,0x1009620
 1001d05:	5f                   	pop    %edi
 1001d06:	5e                   	pop    %esi
 1001d07:	89 1d 24 96 00 01    	mov    %ebx,0x1009624
 1001d0d:	5b                   	pop    %ebx
 1001d0e:	e8 34 54 00 00       	call   0x1007147
 1001d13:	c9                   	leave  
 1001d14:	c2 04 00             	ret    $0x4
 1001d17:	cc                   	int3   
 1001d18:	cc                   	int3   
 1001d19:	cc                   	int3   
 1001d1a:	cc                   	int3   
 1001d1b:	cc                   	int3   
 1001d1c:	6a 00                	push   $0x0
 1001d1e:	e8 1f ff ff ff       	call   0x1001c42
 1001d23:	c2 1c 00             	ret    $0x1c
 1001d26:	cc                   	int3   
 1001d27:	cc                   	int3   
 1001d28:	cc                   	int3   
 1001d29:	cc                   	int3   
 1001d2a:	cc                   	int3   
 1001d2b:	8b ff                	mov    %edi,%edi
 1001d2d:	55                   	push   %ebp
 1001d2e:	8b ec                	mov    %esp,%ebp
 1001d30:	56                   	push   %esi
 1001d31:	8b 75 08             	mov    0x8(%ebp),%esi
 1001d34:	33 c9                	xor    %ecx,%ecx
 1001d36:	66 8b 0e             	mov    (%esi),%cx
 1001d39:	66 85 c9             	test   %cx,%cx
 1001d3c:	57                   	push   %edi
 1001d3d:	8b fe                	mov    %esi,%edi
 1001d3f:	8b c6                	mov    %esi,%eax
 1001d41:	74 23                	je     0x1001d66
 1001d43:	66 83 f9 3a          	cmp    $0x3a,%cx
 1001d47:	74 06                	je     0x1001d4f
 1001d49:	66 83 f9 5c          	cmp    $0x5c,%cx
 1001d4d:	75 02                	jne    0x1001d51
 1001d4f:	8b f8                	mov    %eax,%edi
 1001d51:	50                   	push   %eax
 1001d52:	ff 15 44 12 00 01    	call   *0x1001244
 1001d58:	66 8b 08             	mov    (%eax),%cx
 1001d5b:	66 85 c9             	test   %cx,%cx
 1001d5e:	75 e3                	jne    0x1001d43
 1001d60:	3b fe                	cmp    %esi,%edi
 1001d62:	74 02                	je     0x1001d66
 1001d64:	47                   	inc    %edi
 1001d65:	47                   	inc    %edi
 1001d66:	8b c7                	mov    %edi,%eax
 1001d68:	5f                   	pop    %edi
 1001d69:	5e                   	pop    %esi
 1001d6a:	5d                   	pop    %ebp
 1001d6b:	c2 04 00             	ret    $0x4
 1001d6e:	cc                   	int3   
 1001d6f:	cc                   	int3   
 1001d70:	cc                   	int3   
 1001d71:	cc                   	int3   
 1001d72:	cc                   	int3   
 1001d73:	8b ff                	mov    %edi,%edi
 1001d75:	55                   	push   %ebp
 1001d76:	8b ec                	mov    %esp,%ebp
 1001d78:	83 ec 10             	sub    $0x10,%esp
 1001d7b:	83 65 f8 00          	andl   $0x0,-0x8(%ebp)
 1001d7f:	53                   	push   %ebx
 1001d80:	56                   	push   %esi
 1001d81:	57                   	push   %edi
 1001d82:	ff 35 30 98 00 01    	pushl  0x1009830
 1001d88:	ff 15 64 12 00 01    	call   *0x1001264
 1001d8e:	8b d8                	mov    %eax,%ebx
 1001d90:	8d 45 f0             	lea    -0x10(%ebp),%eax
 1001d93:	50                   	push   %eax
 1001d94:	8d 45 f4             	lea    -0xc(%ebp),%eax
 1001d97:	50                   	push   %eax
 1001d98:	68 b0 00 00 00       	push   $0xb0
 1001d9d:	ff 35 38 98 00 01    	pushl  0x1009838
 1001da3:	ff 15 40 12 00 01    	call   *0x1001240
 1001da9:	8b 4d f4             	mov    -0xc(%ebp),%ecx
 1001dac:	8b 35 60 12 00 01    	mov    0x1001260,%esi
 1001db2:	33 c0                	xor    %eax,%eax
 1001db4:	3b 4d f0             	cmp    -0x10(%ebp),%ecx
 1001db7:	0f 94 c0             	sete   %al
 1001dba:	50                   	push   %eax
 1001dbb:	68 00 03 00 00       	push   $0x300
 1001dc0:	6a 01                	push   $0x1
 1001dc2:	53                   	push   %ebx
 1001dc3:	89 45 fc             	mov    %eax,-0x4(%ebp)
 1001dc6:	ff d6                	call   *%esi
 1001dc8:	8b 3d 5c 12 00 01    	mov    0x100125c,%edi
 1001dce:	50                   	push   %eax
 1001dcf:	ff d7                	call   *%edi
 1001dd1:	ff 75 fc             	pushl  -0x4(%ebp)
 1001dd4:	68 01 03 00 00       	push   $0x301
 1001dd9:	6a 01                	push   $0x1
 1001ddb:	53                   	push   %ebx
 1001ddc:	ff d6                	call   *%esi
 1001dde:	50                   	push   %eax
 1001ddf:	ff d7                	call   *%edi
 1001de1:	ff 75 fc             	pushl  -0x4(%ebp)
 1001de4:	68 03 03 00 00       	push   $0x303
 1001de9:	6a 01                	push   $0x1
 1001deb:	53                   	push   %ebx
 1001dec:	ff d6                	call   *%esi
 1001dee:	50                   	push   %eax
 1001def:	ff d7                	call   *%edi
 1001df1:	6a 00                	push   $0x0
 1001df3:	6a 19                	push   $0x19
 1001df5:	6a 01                	push   $0x1
 1001df7:	53                   	push   %ebx
 1001df8:	ff d6                	call   *%esi
 1001dfa:	50                   	push   %eax
 1001dfb:	ff 15 58 12 00 01    	call   *0x1001258
 1001e01:	83 f8 01             	cmp    $0x1,%eax
 1001e04:	75 10                	jne    0x1001e16
 1001e06:	39 45 fc             	cmp    %eax,-0x4(%ebp)
 1001e09:	75 0b                	jne    0x1001e16
 1001e0b:	6a 00                	push   $0x0
 1001e0d:	6a 19                	push   $0x19
 1001e0f:	50                   	push   %eax
 1001e10:	53                   	push   %ebx
 1001e11:	ff d6                	call   *%esi
 1001e13:	50                   	push   %eax
 1001e14:	ff d7                	call   *%edi
 1001e16:	ff 75 08             	pushl  0x8(%ebp)
 1001e19:	ff 15 54 12 00 01    	call   *0x1001254
 1001e1f:	85 c0                	test   %eax,%eax
 1001e21:	74 11                	je     0x1001e34
 1001e23:	6a 01                	push   $0x1
 1001e25:	ff 15 50 12 00 01    	call   *0x1001250
 1001e2b:	89 45 f8             	mov    %eax,-0x8(%ebp)
 1001e2e:	ff 15 4c 12 00 01    	call   *0x100124c
 1001e34:	33 c0                	xor    %eax,%eax
 1001e36:	39 45 f8             	cmp    %eax,-0x8(%ebp)
 1001e39:	0f 94 c0             	sete   %al
 1001e3c:	50                   	push   %eax
 1001e3d:	68 02 03 00 00       	push   $0x302
 1001e42:	6a 01                	push   $0x1
 1001e44:	53                   	push   %ebx
 1001e45:	ff d6                	call   *%esi
 1001e47:	50                   	push   %eax
 1001e48:	ff d7                	call   *%edi
 1001e4a:	6a 00                	push   $0x0
 1001e4c:	6a 00                	push   $0x0
 1001e4e:	6a 0e                	push   $0xe
 1001e50:	ff 35 38 98 00 01    	pushl  0x1009838
 1001e56:	c7 45 fc 01 00 00 00 	movl   $0x1,-0x4(%ebp)
 1001e5d:	ff 15 40 12 00 01    	call   *0x1001240
 1001e63:	85 c0                	test   %eax,%eax
 1001e65:	74 04                	je     0x1001e6b
 1001e67:	83 65 fc 00          	andl   $0x0,-0x4(%ebp)
 1001e6b:	ff 75 fc             	pushl  -0x4(%ebp)
 1001e6e:	6a 15                	push   $0x15
 1001e70:	6a 01                	push   $0x1
 1001e72:	53                   	push   %ebx
 1001e73:	ff d6                	call   *%esi
 1001e75:	50                   	push   %eax
 1001e76:	ff d7                	call   *%edi
 1001e78:	ff 75 fc             	pushl  -0x4(%ebp)
 1001e7b:	6a 16                	push   $0x16
 1001e7d:	6a 01                	push   $0x1
 1001e7f:	53                   	push   %ebx
 1001e80:	ff d6                	call   *%esi
 1001e82:	50                   	push   %eax
 1001e83:	ff d7                	call   *%edi
 1001e85:	33 c0                	xor    %eax,%eax
 1001e87:	39 05 50 98 00 01    	cmp    %eax,0x1009850
 1001e8d:	0f 95 c0             	setne  %al
 1001e90:	50                   	push   %eax
 1001e91:	6a 18                	push   $0x18
 1001e93:	6a 01                	push   $0x1
 1001e95:	53                   	push   %ebx
 1001e96:	ff d6                	call   *%esi
 1001e98:	50                   	push   %eax
 1001e99:	ff d7                	call   *%edi
 1001e9b:	6a 00                	push   $0x0
 1001e9d:	6a 00                	push   $0x0
 1001e9f:	68 c6 00 00 00       	push   $0xc6
 1001ea4:	ff 35 38 98 00 01    	pushl  0x1009838
 1001eaa:	ff 15 40 12 00 01    	call   *0x1001240
 1001eb0:	33 c9                	xor    %ecx,%ecx
 1001eb2:	85 c0                	test   %eax,%eax
 1001eb4:	0f 94 c1             	sete   %cl
 1001eb7:	51                   	push   %ecx
 1001eb8:	6a 10                	push   $0x10
 1001eba:	6a 01                	push   $0x1
 1001ebc:	53                   	push   %ebx
 1001ebd:	ff d6                	call   *%esi
 1001ebf:	50                   	push   %eax
 1001ec0:	ff d7                	call   *%edi
 1001ec2:	a1 50 98 00 01       	mov    0x1009850,%eax
 1001ec7:	f7 d8                	neg    %eax
 1001ec9:	1b c0                	sbb    %eax,%eax
 1001ecb:	83 e0 08             	and    $0x8,%eax
 1001ece:	50                   	push   %eax
 1001ecf:	6a 20                	push   $0x20
 1001ed1:	6a 02                	push   $0x2
 1001ed3:	53                   	push   %ebx
 1001ed4:	ff d6                	call   *%esi
 1001ed6:	8b 3d 48 12 00 01    	mov    0x1001248,%edi
 1001edc:	50                   	push   %eax
 1001edd:	ff d7                	call   *%edi
 1001edf:	a1 40 98 00 01       	mov    0x1009840,%eax
 1001ee4:	f7 d8                	neg    %eax
 1001ee6:	1b c0                	sbb    %eax,%eax
 1001ee8:	83 e0 08             	and    $0x8,%eax
 1001eeb:	50                   	push   %eax
 1001eec:	6a 1b                	push   $0x1b
 1001eee:	6a 03                	push   $0x3
 1001ef0:	53                   	push   %ebx
 1001ef1:	ff d6                	call   *%esi
 1001ef3:	50                   	push   %eax
 1001ef4:	ff d7                	call   *%edi
 1001ef6:	5f                   	pop    %edi
 1001ef7:	5e                   	pop    %esi
 1001ef8:	5b                   	pop    %ebx
 1001ef9:	c9                   	leave  
 1001efa:	c2 04 00             	ret    $0x4
 1001efd:	cc                   	int3   
 1001efe:	cc                   	int3   
 1001eff:	cc                   	int3   
 1001f00:	cc                   	int3   
 1001f01:	cc                   	int3   
 1001f02:	8b ff                	mov    %edi,%edi
 1001f04:	55                   	push   %ebp
 1001f05:	8b ec                	mov    %esp,%ebp
 1001f07:	8b 4d 08             	mov    0x8(%ebp),%ecx
 1001f0a:	8b 45 10             	mov    0x10(%ebp),%eax
 1001f0d:	57                   	push   %edi
 1001f0e:	6a 02                	push   $0x2
 1001f10:	5f                   	pop    %edi
 1001f11:	eb 12                	jmp    0x1001f25
 1001f13:	66 8b 11             	mov    (%ecx),%dx
 1001f16:	66 89 10             	mov    %dx,(%eax)
 1001f19:	66 8b 11             	mov    (%ecx),%dx
 1001f1c:	03 c7                	add    %edi,%eax
 1001f1e:	03 cf                	add    %edi,%ecx
 1001f20:	66 85 d2             	test   %dx,%dx
 1001f23:	74 16                	je     0x1001f3b
 1001f25:	66 8b 11             	mov    (%ecx),%dx
 1001f28:	66 3b 15 90 ab 00 01 	cmp    0x100ab90,%dx
 1001f2f:	75 e2                	jne    0x1001f13
 1001f31:	56                   	push   %esi
 1001f32:	8b 75 0c             	mov    0xc(%ebp),%esi
 1001f35:	85 f6                	test   %esi,%esi
 1001f37:	74 17                	je     0x1001f50
 1001f39:	eb 0d                	jmp    0x1001f48
 1001f3b:	33 c0                	xor    %eax,%eax
 1001f3d:	eb 27                	jmp    0x1001f66
 1001f3f:	66 89 10             	mov    %dx,(%eax)
 1001f42:	03 c7                	add    %edi,%eax
 1001f44:	03 f7                	add    %edi,%esi
 1001f46:	33 d2                	xor    %edx,%edx
 1001f48:	66 8b 16             	mov    (%esi),%dx
 1001f4b:	66 85 d2             	test   %dx,%dx
 1001f4e:	75 ef                	jne    0x1001f3f
 1001f50:	83 c1 04             	add    $0x4,%ecx
 1001f53:	5e                   	pop    %esi
 1001f54:	66 8b 11             	mov    (%ecx),%dx
 1001f57:	66 89 10             	mov    %dx,(%eax)
 1001f5a:	03 c7                	add    %edi,%eax
 1001f5c:	03 cf                	add    %edi,%ecx
 1001f5e:	66 85 d2             	test   %dx,%dx
 1001f61:	75 f1                	jne    0x1001f54
 1001f63:	33 c0                	xor    %eax,%eax
 1001f65:	40                   	inc    %eax
 1001f66:	5f                   	pop    %edi
 1001f67:	5d                   	pop    %ebp
 1001f68:	c2 0c 00             	ret    $0xc
 1001f6b:	cc                   	int3   
 1001f6c:	cc                   	int3   
 1001f6d:	cc                   	int3   
 1001f6e:	cc                   	int3   
 1001f6f:	cc                   	int3   
 1001f70:	8b ff                	mov    %edi,%edi
 1001f72:	55                   	push   %ebp
 1001f73:	8b ec                	mov    %esp,%ebp
 1001f75:	83 7d 14 00          	cmpl   $0x0,0x14(%ebp)
 1001f79:	56                   	push   %esi
 1001f7a:	8b 35 e4 10 00 01    	mov    0x10010e4,%esi
 1001f80:	57                   	push   %edi
 1001f81:	74 09                	je     0x1001f8c
 1001f83:	ff 75 14             	pushl  0x14(%ebp)
 1001f86:	ff d6                	call   *%esi
 1001f88:	8b f8                	mov    %eax,%edi
 1001f8a:	eb 02                	jmp    0x1001f8e
 1001f8c:	33 ff                	xor    %edi,%edi
 1001f8e:	ff 75 10             	pushl  0x10(%ebp)
 1001f91:	ff d6                	call   *%esi
 1001f93:	03 c7                	add    %edi,%eax
 1001f95:	8d 44 00 02          	lea    0x2(%eax,%eax,1),%eax
 1001f99:	50                   	push   %eax
 1001f9a:	6a 40                	push   $0x40
 1001f9c:	ff 15 e0 10 00 01    	call   *0x10010e0
 1001fa2:	8b f0                	mov    %eax,%esi
 1001fa4:	85 f6                	test   %esi,%esi
 1001fa6:	74 27                	je     0x1001fcf
 1001fa8:	56                   	push   %esi
 1001fa9:	ff 75 14             	pushl  0x14(%ebp)
 1001fac:	ff 75 10             	pushl  0x10(%ebp)
 1001faf:	e8 4e ff ff ff       	call   0x1001f02
 1001fb4:	ff 75 18             	pushl  0x18(%ebp)
 1001fb7:	ff 75 0c             	pushl  0xc(%ebp)
 1001fba:	56                   	push   %esi
 1001fbb:	ff 75 08             	pushl  0x8(%ebp)
 1001fbe:	ff 15 68 12 00 01    	call   *0x1001268
 1001fc4:	56                   	push   %esi
 1001fc5:	8b f8                	mov    %eax,%edi
 1001fc7:	ff 15 dc 10 00 01    	call   *0x10010dc
 1001fcd:	eb 14                	jmp    0x1001fe3
 1001fcf:	ff 75 18             	pushl  0x18(%ebp)
 1001fd2:	ff 75 0c             	pushl  0xc(%ebp)
 1001fd5:	ff 75 10             	pushl  0x10(%ebp)
 1001fd8:	ff 75 08             	pushl  0x8(%ebp)
 1001fdb:	ff 15 68 12 00 01    	call   *0x1001268
 1001fe1:	8b f8                	mov    %eax,%edi
 1001fe3:	8b c7                	mov    %edi,%eax
 1001fe5:	5f                   	pop    %edi
 1001fe6:	5e                   	pop    %esi
 1001fe7:	5d                   	pop    %ebp
 1001fe8:	c2 14 00             	ret    $0x14
 1001feb:	cc                   	int3   
 1001fec:	cc                   	int3   
 1001fed:	cc                   	int3   
 1001fee:	cc                   	int3   
 1001fef:	cc                   	int3   
 1001ff0:	8b ff                	mov    %edi,%edi
 1001ff2:	55                   	push   %ebp
 1001ff3:	8b ec                	mov    %esp,%ebp
 1001ff5:	81 ec 94 01 00 00    	sub    $0x194,%esp
 1001ffb:	a1 04 96 00 01       	mov    0x1009604,%eax
 1002000:	89 45 fc             	mov    %eax,-0x4(%ebp)
 1002003:	ff 15 e0 12 00 01    	call   *0x10012e0
 1002009:	85 c0                	test   %eax,%eax
 100200b:	74 63                	je     0x1002070
 100200d:	33 c9                	xor    %ecx,%ecx
 100200f:	33 d2                	xor    %edx,%edx
 1002011:	3b 82 a0 91 00 01    	cmp    0x10091a0(%edx),%eax
 1002017:	75 08                	jne    0x1002021
 1002019:	8b 8a a4 91 00 01    	mov    0x10091a4(%edx),%ecx
 100201f:	8b 09                	mov    (%ecx),%ecx
 1002021:	83 c2 08             	add    $0x8,%edx
 1002024:	83 fa 40             	cmp    $0x40,%edx
 1002027:	72 e8                	jb     0x1002011
 1002029:	85 c9                	test   %ecx,%ecx
 100202b:	75 22                	jne    0x100204f
 100202d:	50                   	push   %eax
 100202e:	ff 35 a8 90 00 01    	pushl  0x10090a8
 1002034:	8d 85 6c fe ff ff    	lea    -0x194(%ebp),%eax
 100203a:	68 c7 00 00 00       	push   $0xc7
 100203f:	50                   	push   %eax
 1002040:	ff 15 14 13 00 01    	call   *0x1001314
 1002046:	83 c4 10             	add    $0x10,%esp
 1002049:	8d 8d 6c fe ff ff    	lea    -0x194(%ebp),%ecx
 100204f:	66 83 39 00          	cmpw   $0x0,(%ecx)
 1002053:	74 18                	je     0x100206d
 1002055:	68 10 10 00 00       	push   $0x1010
 100205a:	ff 35 54 90 00 01    	pushl  0x1009054
 1002060:	51                   	push   %ecx
 1002061:	ff 35 30 98 00 01    	pushl  0x1009830
 1002067:	ff 15 68 12 00 01    	call   *0x1001268
 100206d:	33 c0                	xor    %eax,%eax
 100206f:	40                   	inc    %eax
 1002070:	8b 4d fc             	mov    -0x4(%ebp),%ecx
 1002073:	e8 cf 50 00 00       	call   0x1007147
 1002078:	c9                   	leave  
 1002079:	c3                   	ret    
 100207a:	cc                   	int3   
 100207b:	cc                   	int3   
 100207c:	cc                   	int3   
 100207d:	cc                   	int3   
 100207e:	cc                   	int3   
 100207f:	8b ff                	mov    %edi,%edi
 1002081:	55                   	push   %ebp
 1002082:	8b ec                	mov    %esp,%ebp
 1002084:	83 ec 14             	sub    $0x14,%esp
 1002087:	53                   	push   %ebx
 1002088:	56                   	push   %esi
 1002089:	ff 35 14 a5 00 01    	pushl  0x100a514
 100208f:	8b 35 e4 10 00 01    	mov    0x10010e4,%esi
 1002095:	ff d6                	call   *%esi
 1002097:	ff 35 10 a5 00 01    	pushl  0x100a510
 100209d:	89 45 f0             	mov    %eax,-0x10(%ebp)
 10020a0:	ff d6                	call   *%esi
 10020a2:	8b 35 40 12 00 01    	mov    0x1001240,%esi
 10020a8:	89 45 fc             	mov    %eax,-0x4(%ebp)
 10020ab:	8d 45 f4             	lea    -0xc(%ebp),%eax
 10020ae:	50                   	push   %eax
 10020af:	8d 45 f8             	lea    -0x8(%ebp),%eax
 10020b2:	50                   	push   %eax
 10020b3:	68 b0 00 00 00       	push   $0xb0
 10020b8:	ff 35 38 98 00 01    	pushl  0x1009838
 10020be:	ff d6                	call   *%esi
 10020c0:	33 db                	xor    %ebx,%ebx
 10020c2:	53                   	push   %ebx
 10020c3:	53                   	push   %ebx
 10020c4:	68 bd 00 00 00       	push   $0xbd
 10020c9:	ff 35 38 98 00 01    	pushl  0x1009838
 10020cf:	ff d6                	call   *%esi
 10020d1:	3b c3                	cmp    %ebx,%eax
 10020d3:	89 45 ec             	mov    %eax,-0x14(%ebp)
 10020d6:	0f 84 bf 00 00 00    	je     0x100219b
 10020dc:	57                   	push   %edi
 10020dd:	50                   	push   %eax
 10020de:	ff 15 f0 10 00 01    	call   *0x10010f0
 10020e4:	8b f8                	mov    %eax,%edi
 10020e6:	3b fb                	cmp    %ebx,%edi
 10020e8:	0f 84 ac 00 00 00    	je     0x100219a
 10020ee:	8b 4d f4             	mov    -0xc(%ebp),%ecx
 10020f1:	8b 45 f8             	mov    -0x8(%ebp),%eax
 10020f4:	2b c8                	sub    %eax,%ecx
 10020f6:	3b 4d fc             	cmp    -0x4(%ebp),%ecx
 10020f9:	0f 85 92 00 00 00    	jne    0x1002191
 10020ff:	39 1d 90 9a 00 01    	cmp    %ebx,0x1009a90
 1002105:	74 25                	je     0x100212c
 1002107:	ff 75 fc             	pushl  -0x4(%ebp)
 100210a:	8d 04 47             	lea    (%edi,%eax,2),%eax
 100210d:	50                   	push   %eax
 100210e:	ff 35 10 a5 00 01    	pushl  0x100a510
 1002114:	ff 15 10 13 00 01    	call   *0x1001310
 100211a:	83 c4 0c             	add    $0xc,%esp
 100211d:	85 c0                	test   %eax,%eax
 100211f:	74 30                	je     0x1002151
 1002121:	39 1d 90 9a 00 01    	cmp    %ebx,0x1009a90
 1002127:	75 68                	jne    0x1002191
 1002129:	8b 45 f8             	mov    -0x8(%ebp),%eax
 100212c:	ff 75 fc             	pushl  -0x4(%ebp)
 100212f:	8d 04 47             	lea    (%edi,%eax,2),%eax
 1002132:	50                   	push   %eax
 1002133:	ff 75 fc             	pushl  -0x4(%ebp)
 1002136:	ff 35 10 a5 00 01    	pushl  0x100a510
 100213c:	68 01 10 00 10       	push   $0x10001001
 1002141:	68 00 04 00 00       	push   $0x400
 1002146:	ff 15 ec 10 00 01    	call   *0x10010ec
 100214c:	83 f8 02             	cmp    $0x2,%eax
 100214f:	75 40                	jne    0x1002191
 1002151:	ff 35 14 a5 00 01    	pushl  0x100a514
 1002157:	6a 01                	push   $0x1
 1002159:	68 c2 00 00 00       	push   $0xc2
 100215e:	ff 35 38 98 00 01    	pushl  0x1009838
 1002164:	ff d6                	call   *%esi
 1002166:	8b 45 f8             	mov    -0x8(%ebp),%eax
 1002169:	8b 4d f0             	mov    -0x10(%ebp),%ecx
 100216c:	03 c8                	add    %eax,%ecx
 100216e:	51                   	push   %ecx
 100216f:	50                   	push   %eax
 1002170:	68 b1 00 00 00       	push   $0xb1
 1002175:	ff 35 38 98 00 01    	pushl  0x1009838
 100217b:	ff d6                	call   *%esi
 100217d:	39 5d 08             	cmp    %ebx,0x8(%ebp)
 1002180:	74 0f                	je     0x1002191
 1002182:	53                   	push   %ebx
 1002183:	53                   	push   %ebx
 1002184:	68 b7 00 00 00       	push   $0xb7
 1002189:	ff 35 38 98 00 01    	pushl  0x1009838
 100218f:	ff d6                	call   *%esi
 1002191:	ff 75 ec             	pushl  -0x14(%ebp)
 1002194:	ff 15 e8 10 00 01    	call   *0x10010e8
 100219a:	5f                   	pop    %edi
 100219b:	5e                   	pop    %esi
 100219c:	5b                   	pop    %ebx
 100219d:	c9                   	leave  
 100219e:	c2 04 00             	ret    $0x4
 10021a1:	cc                   	int3   
 10021a2:	cc                   	int3   
 10021a3:	cc                   	int3   
 10021a4:	cc                   	int3   
 10021a5:	cc                   	int3   
 10021a6:	8b ff                	mov    %edi,%edi
 10021a8:	55                   	push   %ebp
 10021a9:	8b ec                	mov    %esp,%ebp
 10021ab:	81 ec d4 00 00 00    	sub    $0xd4,%esp
 10021b1:	a1 04 96 00 01       	mov    0x1009604,%eax
 10021b6:	8b 55 10             	mov    0x10(%ebp),%edx
 10021b9:	8b 4d 14             	mov    0x14(%ebp),%ecx
 10021bc:	53                   	push   %ebx
 10021bd:	8b 5d 08             	mov    0x8(%ebp),%ebx
 10021c0:	89 45 fc             	mov    %eax,-0x4(%ebp)
 10021c3:	8b 45 0c             	mov    0xc(%ebp),%eax
 10021c6:	83 e8 53             	sub    $0x53,%eax
 10021c9:	56                   	push   %esi
 10021ca:	57                   	push   %edi
 10021cb:	0f 84 a0 01 00 00    	je     0x1002371
 10021d1:	83 e8 28             	sub    $0x28,%eax
 10021d4:	0f 84 87 01 00 00    	je     0x1002361
 10021da:	2d 95 00 00 00       	sub    $0x95,%eax
 10021df:	0f 84 ed 00 00 00    	je     0x10022d2
 10021e5:	48                   	dec    %eax
 10021e6:	0f 85 9b 01 00 00    	jne    0x1002387
 10021ec:	0f b7 c2             	movzwl %dx,%eax
 10021ef:	48                   	dec    %eax
 10021f0:	74 21                	je     0x1002213
 10021f2:	48                   	dec    %eax
 10021f3:	74 0d                	je     0x1002202
 10021f5:	2d 00 01 00 00       	sub    $0x100,%eax
 10021fa:	0f 85 87 01 00 00    	jne    0x1002387
 1002200:	eb 09                	jmp    0x100220b
 1002202:	6a 01                	push   $0x1
 1002204:	53                   	push   %ebx
 1002205:	ff 15 88 12 00 01    	call   *0x1001288
 100220b:	33 c0                	xor    %eax,%eax
 100220d:	40                   	inc    %eax
 100220e:	e9 76 01 00 00       	jmp    0x1002389
 1002213:	6a 64                	push   $0x64
 1002215:	8d 85 34 ff ff ff    	lea    -0xcc(%ebp),%eax
 100221b:	50                   	push   %eax
 100221c:	be 02 01 00 00       	mov    $0x102,%esi
 1002221:	56                   	push   %esi
 1002222:	53                   	push   %ebx
 1002223:	ff 15 84 12 00 01    	call   *0x1001284
 1002229:	6a 64                	push   $0x64
 100222b:	8d 85 34 ff ff ff    	lea    -0xcc(%ebp),%eax
 1002231:	50                   	push   %eax
 1002232:	6a ff                	push   $0xffffffff
 1002234:	50                   	push   %eax
 1002235:	68 80 00 00 00       	push   $0x80
 100223a:	ff 15 f4 10 00 01    	call   *0x10010f4
 1002240:	8d 85 34 ff ff ff    	lea    -0xcc(%ebp),%eax
 1002246:	50                   	push   %eax
 1002247:	ff 15 0c 13 00 01    	call   *0x100130c
 100224d:	8b 3d 40 12 00 01    	mov    0x1001240,%edi
 1002253:	59                   	pop    %ecx
 1002254:	6a 00                	push   $0x0
 1002256:	a3 94 ab 00 01       	mov    %eax,0x100ab94
 100225b:	48                   	dec    %eax
 100225c:	50                   	push   %eax
 100225d:	68 bb 00 00 00       	push   $0xbb
 1002262:	ff 35 38 98 00 01    	pushl  0x1009838
 1002268:	ff d7                	call   *%edi
 100226a:	33 c9                	xor    %ecx,%ecx
 100226c:	39 0d 94 ab 00 01    	cmp    %ecx,0x100ab94
 1002272:	76 08                	jbe    0x100227c
 1002274:	83 f8 ff             	cmp    $0xffffffff,%eax
 1002277:	74 03                	je     0x100227c
 1002279:	51                   	push   %ecx
 100227a:	eb 88                	jmp    0x1002204
 100227c:	51                   	push   %ecx
 100227d:	ff 35 ac 90 00 01    	pushl  0x10090ac
 1002283:	ff 35 b0 90 00 01    	pushl  0x10090b0
 1002289:	53                   	push   %ebx
 100228a:	ff 15 68 12 00 01    	call   *0x1001268
 1002290:	6a 00                	push   $0x0
 1002292:	6a 00                	push   $0x0
 1002294:	68 ba 00 00 00       	push   $0xba
 1002299:	ff 35 38 98 00 01    	pushl  0x1009838
 100229f:	ff d7                	call   *%edi
 10022a1:	50                   	push   %eax
 10022a2:	8d 85 34 ff ff ff    	lea    -0xcc(%ebp),%eax
 10022a8:	68 98 13 00 01       	push   $0x1001398
 10022ad:	50                   	push   %eax
 10022ae:	ff 15 80 12 00 01    	call   *0x1001280
 10022b4:	83 c4 0c             	add    $0xc,%esp
 10022b7:	8d 85 34 ff ff ff    	lea    -0xcc(%ebp),%eax
 10022bd:	50                   	push   %eax
 10022be:	56                   	push   %esi
 10022bf:	53                   	push   %ebx
 10022c0:	ff 15 7c 12 00 01    	call   *0x100127c
 10022c6:	53                   	push   %ebx
 10022c7:	ff 15 78 12 00 01    	call   *0x1001278
 10022cd:	e9 b5 00 00 00       	jmp    0x1002387
 10022d2:	be 02 01 00 00       	mov    $0x102,%esi
 10022d7:	56                   	push   %esi
 10022d8:	53                   	push   %ebx
 10022d9:	ff 15 74 12 00 01    	call   *0x1001274
 10022df:	8b f8                	mov    %eax,%edi
 10022e1:	6a f0                	push   $0xfffffff0
 10022e3:	57                   	push   %edi
 10022e4:	ff 15 70 12 00 01    	call   *0x1001270
 10022ea:	0d 00 20 00 00       	or     $0x2000,%eax
 10022ef:	50                   	push   %eax
 10022f0:	6a f0                	push   $0xfffffff0
 10022f2:	57                   	push   %edi
 10022f3:	ff 15 6c 12 00 01    	call   *0x100126c
 10022f9:	8b 3d 40 12 00 01    	mov    0x1001240,%edi
 10022ff:	8d 85 2c ff ff ff    	lea    -0xd4(%ebp),%eax
 1002305:	50                   	push   %eax
 1002306:	8d 85 30 ff ff ff    	lea    -0xd0(%ebp),%eax
 100230c:	50                   	push   %eax
 100230d:	68 b0 00 00 00       	push   $0xb0
 1002312:	ff 35 38 98 00 01    	pushl  0x1009838
 1002318:	ff d7                	call   *%edi
 100231a:	6a 00                	push   $0x0
 100231c:	ff b5 30 ff ff ff    	pushl  -0xd0(%ebp)
 1002322:	68 c9 00 00 00       	push   $0xc9
 1002327:	ff 35 38 98 00 01    	pushl  0x1009838
 100232d:	ff d7                	call   *%edi
 100232f:	40                   	inc    %eax
 1002330:	50                   	push   %eax
 1002331:	8d 85 34 ff ff ff    	lea    -0xcc(%ebp),%eax
 1002337:	68 98 13 00 01       	push   $0x1001398
 100233c:	50                   	push   %eax
 100233d:	ff 15 80 12 00 01    	call   *0x1001280
 1002343:	83 c4 0c             	add    $0xc,%esp
 1002346:	8d 85 34 ff ff ff    	lea    -0xcc(%ebp),%eax
 100234c:	50                   	push   %eax
 100234d:	56                   	push   %esi
 100234e:	53                   	push   %ebx
 100234f:	ff 15 7c 12 00 01    	call   *0x100127c
 1002355:	53                   	push   %ebx
 1002356:	ff 15 78 12 00 01    	call   *0x1001278
 100235c:	e9 aa fe ff ff       	jmp    0x100220b
 1002361:	68 84 13 00 01       	push   $0x1001384
 1002366:	6a 0a                	push   $0xa
 1002368:	ff 35 74 90 00 01    	pushl  0x1009074
 100236e:	52                   	push   %edx
 100236f:	eb 10                	jmp    0x1002381
 1002371:	68 84 13 00 01       	push   $0x1001384
 1002376:	6a 0c                	push   $0xc
 1002378:	ff 35 74 90 00 01    	pushl  0x1009074
 100237e:	ff 71 0c             	pushl  0xc(%ecx)
 1002381:	ff 15 28 12 00 01    	call   *0x1001228
 1002387:	33 c0                	xor    %eax,%eax
 1002389:	8b 4d fc             	mov    -0x4(%ebp),%ecx
 100238c:	5f                   	pop    %edi
 100238d:	5e                   	pop    %esi
 100238e:	5b                   	pop    %ebx
 100238f:	e8 b3 4d 00 00       	call   0x1007147
 1002394:	c9                   	leave  
 1002395:	c2 10 00             	ret    $0x10
 1002398:	cc                   	int3   
 1002399:	cc                   	int3   
 100239a:	cc                   	int3   
 100239b:	cc                   	int3   
 100239c:	cc                   	int3   
 100239d:	8b ff                	mov    %edi,%edi
 100239f:	55                   	push   %ebp
 10023a0:	8b ec                	mov    %esp,%ebp
 10023a2:	57                   	push   %edi
 10023a3:	8b 7d 0c             	mov    0xc(%ebp),%edi
 10023a6:	33 c0                	xor    %eax,%eax
 10023a8:	83 ff 01             	cmp    $0x1,%edi
 10023ab:	76 52                	jbe    0x10023ff
 10023ad:	56                   	push   %esi
 10023ae:	8b 75 08             	mov    0x8(%ebp),%esi
 10023b1:	0f b7 0e             	movzwl (%esi),%ecx
 10023b4:	81 f9 ef bb 00 00    	cmp    $0xbbef,%ecx
 10023ba:	74 34                	je     0x10023f0
 10023bc:	81 f9 ff fe 00 00    	cmp    $0xfeff,%ecx
 10023c2:	74 13                	je     0x10023d7
 10023c4:	81 f9 fe ff 00 00    	cmp    $0xfffe,%ecx
 10023ca:	74 20                	je     0x10023ec
 10023cc:	57                   	push   %edi
 10023cd:	56                   	push   %esi
 10023ce:	e8 de 4c 00 00       	call   0x10070b1
 10023d3:	85 c0                	test   %eax,%eax
 10023d5:	74 05                	je     0x10023dc
 10023d7:	33 c0                	xor    %eax,%eax
 10023d9:	40                   	inc    %eax
 10023da:	eb 22                	jmp    0x10023fe
 10023dc:	57                   	push   %edi
 10023dd:	56                   	push   %esi
 10023de:	e8 76 4c 00 00       	call   0x1007059
 10023e3:	f7 d8                	neg    %eax
 10023e5:	1b c0                	sbb    %eax,%eax
 10023e7:	83 e0 03             	and    $0x3,%eax
 10023ea:	eb 12                	jmp    0x10023fe
 10023ec:	6a 02                	push   $0x2
 10023ee:	eb 0d                	jmp    0x10023fd
 10023f0:	83 ff 02             	cmp    $0x2,%edi
 10023f3:	76 09                	jbe    0x10023fe
 10023f5:	80 7e 02 bf          	cmpb   $0xbf,0x2(%esi)
 10023f9:	75 03                	jne    0x10023fe
 10023fb:	6a 03                	push   $0x3
 10023fd:	58                   	pop    %eax
 10023fe:	5e                   	pop    %esi
 10023ff:	5f                   	pop    %edi
 1002400:	5d                   	pop    %ebp
 1002401:	c2 08 00             	ret    $0x8
 1002404:	cc                   	int3   
 1002405:	cc                   	int3   
 1002406:	cc                   	int3   
 1002407:	cc                   	int3   
 1002408:	cc                   	int3   
 1002409:	8b ff                	mov    %edi,%edi
 100240b:	55                   	push   %ebp
 100240c:	8b ec                	mov    %esp,%ebp
 100240e:	33 c0                	xor    %eax,%eax
 1002410:	39 45 0c             	cmp    %eax,0xc(%ebp)
 1002413:	75 07                	jne    0x100241c
 1002415:	b8 57 00 07 80       	mov    $0x80070057,%eax
 100241a:	eb 2d                	jmp    0x1002449
 100241c:	8b 55 08             	mov    0x8(%ebp),%edx
 100241f:	56                   	push   %esi
 1002420:	8b 75 10             	mov    0x10(%ebp),%esi
 1002423:	66 8b 0e             	mov    (%esi),%cx
 1002426:	66 85 c9             	test   %cx,%cx
 1002429:	74 0c                	je     0x1002437
 100242b:	66 89 0a             	mov    %cx,(%edx)
 100242e:	42                   	inc    %edx
 100242f:	42                   	inc    %edx
 1002430:	46                   	inc    %esi
 1002431:	46                   	inc    %esi
 1002432:	ff 4d 0c             	decl   0xc(%ebp)
 1002435:	75 ec                	jne    0x1002423
 1002437:	83 7d 0c 00          	cmpl   $0x0,0xc(%ebp)
 100243b:	5e                   	pop    %esi
 100243c:	75 07                	jne    0x1002445
 100243e:	4a                   	dec    %edx
 100243f:	4a                   	dec    %edx
 1002440:	b8 7a 00 07 80       	mov    $0x8007007a,%eax
 1002445:	66 83 22 00          	andw   $0x0,(%edx)
 1002449:	5d                   	pop    %ebp
 100244a:	c2 0c 00             	ret    $0xc
 100244d:	cc                   	int3   
 100244e:	cc                   	int3   
 100244f:	cc                   	int3   
 1002450:	cc                   	int3   
 1002451:	cc                   	int3   
 1002452:	8b ff                	mov    %edi,%edi
 1002454:	55                   	push   %ebp
 1002455:	8b ec                	mov    %esp,%ebp
 1002457:	81 ec 1c 06 00 00    	sub    $0x61c,%esp
 100245d:	a1 04 96 00 01       	mov    0x1009604,%eax
 1002462:	53                   	push   %ebx
 1002463:	8b 5d 10             	mov    0x10(%ebp),%ebx
 1002466:	89 45 fc             	mov    %eax,-0x4(%ebp)
 1002469:	8b 45 0c             	mov    0xc(%ebp),%eax
 100246c:	83 e8 4e             	sub    $0x4e,%eax
 100246f:	56                   	push   %esi
 1002470:	8b 75 08             	mov    0x8(%ebp),%esi
 1002473:	57                   	push   %edi
 1002474:	8b 7d 14             	mov    0x14(%ebp),%edi
 1002477:	89 b5 f0 f9 ff ff    	mov    %esi,-0x610(%ebp)
 100247d:	0f 84 68 01 00 00    	je     0x10025eb
 1002483:	83 e8 05             	sub    $0x5,%eax
 1002486:	0f 84 32 01 00 00    	je     0x10025be
 100248c:	83 e8 28             	sub    $0x28,%eax
 100248f:	0f 84 c0 00 00 00    	je     0x1002555
 1002495:	2d 95 00 00 00       	sub    $0x95,%eax
 100249a:	74 26                	je     0x10024c2
 100249c:	48                   	dec    %eax
 100249d:	0f 85 56 02 00 00    	jne    0x10026f9
 10024a3:	6a 00                	push   $0x0
 10024a5:	6a 00                	push   $0x0
 10024a7:	68 47 01 00 00       	push   $0x147
 10024ac:	68 01 01 00 00       	push   $0x101
 10024b1:	56                   	push   %esi
 10024b2:	ff 15 3c 12 00 01    	call   *0x100123c
 10024b8:	a3 30 90 00 01       	mov    %eax,0x1009030
 10024bd:	e9 37 02 00 00       	jmp    0x10026f9
 10024c2:	ff 35 b4 90 00 01    	pushl  0x10090b4
 10024c8:	bb 43 01 00 00       	mov    $0x143,%ebx
 10024cd:	6a 00                	push   $0x0
 10024cf:	53                   	push   %ebx
 10024d0:	bf 01 01 00 00       	mov    $0x101,%edi
 10024d5:	57                   	push   %edi
 10024d6:	56                   	push   %esi
 10024d7:	8b 35 3c 12 00 01    	mov    0x100123c,%esi
 10024dd:	ff d6                	call   *%esi
 10024df:	ff 35 b8 90 00 01    	pushl  0x10090b8
 10024e5:	6a 00                	push   $0x0
 10024e7:	53                   	push   %ebx
 10024e8:	57                   	push   %edi
 10024e9:	ff b5 f0 f9 ff ff    	pushl  -0x610(%ebp)
 10024ef:	ff d6                	call   *%esi
 10024f1:	ff 35 bc 90 00 01    	pushl  0x10090bc
 10024f7:	6a 00                	push   $0x0
 10024f9:	53                   	push   %ebx
 10024fa:	57                   	push   %edi
 10024fb:	ff b5 f0 f9 ff ff    	pushl  -0x610(%ebp)
 1002501:	ff d6                	call   *%esi
 1002503:	ff 35 c0 90 00 01    	pushl  0x10090c0
 1002509:	6a 00                	push   $0x0
 100250b:	53                   	push   %ebx
 100250c:	57                   	push   %edi
 100250d:	ff b5 f0 f9 ff ff    	pushl  -0x610(%ebp)
 1002513:	ff d6                	call   *%esi
 1002515:	a1 30 90 00 01       	mov    0x1009030,%eax
 100251a:	48                   	dec    %eax
 100251b:	8b 0d b4 90 00 01    	mov    0x10090b4,%ecx
 1002521:	74 16                	je     0x1002539
 1002523:	48                   	dec    %eax
 1002524:	74 0b                	je     0x1002531
 1002526:	48                   	dec    %eax
 1002527:	75 16                	jne    0x100253f
 1002529:	8b 0d c0 90 00 01    	mov    0x10090c0,%ecx
 100252f:	eb 0e                	jmp    0x100253f
 1002531:	8b 0d bc 90 00 01    	mov    0x10090bc,%ecx
 1002537:	eb 06                	jmp    0x100253f
 1002539:	8b 0d b8 90 00 01    	mov    0x10090b8,%ecx
 100253f:	51                   	push   %ecx
 1002540:	6a ff                	push   $0xffffffff
 1002542:	68 4d 01 00 00       	push   $0x14d
 1002547:	57                   	push   %edi
 1002548:	ff b5 f0 f9 ff ff    	pushl  -0x610(%ebp)
 100254e:	ff d6                	call   *%esi
 1002550:	e9 a4 01 00 00       	jmp    0x10026f9
 1002555:	3b f3                	cmp    %ebx,%esi
 1002557:	75 30                	jne    0x1002589
 1002559:	8d 85 e4 f9 ff ff    	lea    -0x61c(%ebp),%eax
 100255f:	50                   	push   %eax
 1002560:	ff 15 38 12 00 01    	call   *0x1001238
 1002566:	8d 85 e4 f9 ff ff    	lea    -0x61c(%ebp),%eax
 100256c:	50                   	push   %eax
 100256d:	56                   	push   %esi
 100256e:	ff 15 34 12 00 01    	call   *0x1001234
 1002574:	ff b5 e8 f9 ff ff    	pushl  -0x618(%ebp)
 100257a:	ff b5 e4 f9 ff ff    	pushl  -0x61c(%ebp)
 1002580:	56                   	push   %esi
 1002581:	ff 15 30 12 00 01    	call   *0x1001230
 1002587:	8b d8                	mov    %eax,%ebx
 1002589:	53                   	push   %ebx
 100258a:	ff 15 2c 12 00 01    	call   *0x100122c
 1002590:	3d 01 01 00 00       	cmp    $0x101,%eax
 1002595:	74 0b                	je     0x10025a2
 1002597:	3d 03 01 00 00       	cmp    $0x103,%eax
 100259c:	0f 85 57 01 00 00    	jne    0x10026f9
 10025a2:	68 6c 13 00 01       	push   $0x100136c
 10025a7:	6a 0a                	push   $0xa
 10025a9:	ff 35 74 90 00 01    	pushl  0x1009074
 10025af:	53                   	push   %ebx
 10025b0:	ff 15 28 12 00 01    	call   *0x1001228
 10025b6:	33 c0                	xor    %eax,%eax
 10025b8:	40                   	inc    %eax
 10025b9:	e9 3d 01 00 00       	jmp    0x10026fb
 10025be:	ff 77 0c             	pushl  0xc(%edi)
 10025c1:	ff 15 2c 12 00 01    	call   *0x100122c
 10025c7:	3d 01 01 00 00       	cmp    $0x101,%eax
 10025cc:	74 0b                	je     0x10025d9
 10025ce:	3d 03 01 00 00       	cmp    $0x103,%eax
 10025d3:	0f 85 20 01 00 00    	jne    0x10026f9
 10025d9:	68 6c 13 00 01       	push   $0x100136c
 10025de:	6a 0c                	push   $0xc
 10025e0:	ff 35 74 90 00 01    	pushl  0x1009074
 10025e6:	ff 77 0c             	pushl  0xc(%edi)
 10025e9:	eb c5                	jmp    0x10025b0
 10025eb:	81 7f 08 a6 fd ff ff 	cmpl   $0xfffffda6,0x8(%edi)
 10025f2:	0f 85 01 01 00 00    	jne    0x10026f9
 10025f8:	8d 85 f4 fd ff ff    	lea    -0x20c(%ebp),%eax
 10025fe:	50                   	push   %eax
 10025ff:	68 04 01 00 00       	push   $0x104
 1002604:	68 65 04 00 00       	push   $0x465
 1002609:	56                   	push   %esi
 100260a:	ff 15 8c 12 00 01    	call   *0x100128c
 1002610:	50                   	push   %eax
 1002611:	ff 15 40 12 00 01    	call   *0x1001240
 1002617:	85 c0                	test   %eax,%eax
 1002619:	0f 8e da 00 00 00    	jle    0x10026f9
 100261f:	bb 68 98 00 01       	mov    $0x1009868,%ebx
 1002624:	53                   	push   %ebx
 1002625:	8d 85 f4 fd ff ff    	lea    -0x20c(%ebp),%eax
 100262b:	50                   	push   %eax
 100262c:	ff 15 08 11 00 01    	call   *0x1001108
 1002632:	85 c0                	test   %eax,%eax
 1002634:	0f 84 bf 00 00 00    	je     0x10026f9
 100263a:	33 ff                	xor    %edi,%edi
 100263c:	57                   	push   %edi
 100263d:	68 80 00 00 00       	push   $0x80
 1002642:	6a 03                	push   $0x3
 1002644:	57                   	push   %edi
 1002645:	6a 01                	push   $0x1
 1002647:	68 00 00 00 80       	push   $0x80000000
 100264c:	8d 85 f4 fd ff ff    	lea    -0x20c(%ebp),%eax
 1002652:	50                   	push   %eax
 1002653:	ff 15 04 11 00 01    	call   *0x1001104
 1002659:	83 f8 ff             	cmp    $0xffffffff,%eax
 100265c:	89 85 ec f9 ff ff    	mov    %eax,-0x614(%ebp)
 1002662:	0f 84 91 00 00 00    	je     0x10026f9
 1002668:	57                   	push   %edi
 1002669:	8d 8d f0 f9 ff ff    	lea    -0x610(%ebp),%ecx
 100266f:	51                   	push   %ecx
 1002670:	68 00 04 00 00       	push   $0x400
 1002675:	8d 8d f4 f9 ff ff    	lea    -0x60c(%ebp),%ecx
 100267b:	51                   	push   %ecx
 100267c:	50                   	push   %eax
 100267d:	ff 15 00 11 00 01    	call   *0x1001100
 1002683:	85 c0                	test   %eax,%eax
 1002685:	7e 66                	jle    0x10026ed
 1002687:	39 bd f0 f9 ff ff    	cmp    %edi,-0x610(%ebp)
 100268d:	74 5e                	je     0x10026ed
 100268f:	ff b5 f0 f9 ff ff    	pushl  -0x610(%ebp)
 1002695:	8d 85 f4 f9 ff ff    	lea    -0x60c(%ebp),%eax
 100269b:	50                   	push   %eax
 100269c:	e8 fc fc ff ff       	call   0x100239d
 10026a1:	8b 0d b4 90 00 01    	mov    0x10090b4,%ecx
 10026a7:	a3 30 90 00 01       	mov    %eax,0x1009030
 10026ac:	48                   	dec    %eax
 10026ad:	74 16                	je     0x10026c5
 10026af:	48                   	dec    %eax
 10026b0:	74 0b                	je     0x10026bd
 10026b2:	48                   	dec    %eax
 10026b3:	75 16                	jne    0x10026cb
 10026b5:	8b 0d c0 90 00 01    	mov    0x10090c0,%ecx
 10026bb:	eb 0e                	jmp    0x10026cb
 10026bd:	8b 0d bc 90 00 01    	mov    0x10090bc,%ecx
 10026c3:	eb 06                	jmp    0x10026cb
 10026c5:	8b 0d b8 90 00 01    	mov    0x10090b8,%ecx
 10026cb:	51                   	push   %ecx
 10026cc:	6a ff                	push   $0xffffffff
 10026ce:	68 4d 01 00 00       	push   $0x14d
 10026d3:	68 01 01 00 00       	push   $0x101
 10026d8:	56                   	push   %esi
 10026d9:	ff 15 3c 12 00 01    	call   *0x100123c
 10026df:	8d 85 f4 fd ff ff    	lea    -0x20c(%ebp),%eax
 10026e5:	50                   	push   %eax
 10026e6:	53                   	push   %ebx
 10026e7:	ff 15 fc 10 00 01    	call   *0x10010fc
 10026ed:	ff b5 ec f9 ff ff    	pushl  -0x614(%ebp)
 10026f3:	ff 15 f8 10 00 01    	call   *0x10010f8
 10026f9:	33 c0                	xor    %eax,%eax
 10026fb:	8b 4d fc             	mov    -0x4(%ebp),%ecx
 10026fe:	5f                   	pop    %edi
 10026ff:	5e                   	pop    %esi
 1002700:	5b                   	pop    %ebx
 1002701:	e8 41 4a 00 00       	call   0x1007147
 1002706:	c9                   	leave  
 1002707:	c2 10 00             	ret    $0x10
 100270a:	cc                   	int3   
 100270b:	cc                   	int3   
 100270c:	cc                   	int3   
 100270d:	cc                   	int3   
 100270e:	cc                   	int3   
 100270f:	8b ff                	mov    %edi,%edi
 1002711:	55                   	push   %ebp
 1002712:	8b ec                	mov    %esp,%ebp
 1002714:	81 ec 10 02 00 00    	sub    $0x210,%esp
 100271a:	a1 04 96 00 01       	mov    0x1009604,%eax
 100271f:	53                   	push   %ebx
 1002720:	56                   	push   %esi
 1002721:	57                   	push   %edi
 1002722:	89 45 fc             	mov    %eax,-0x4(%ebp)
 1002725:	33 db                	xor    %ebx,%ebx
 1002727:	33 c0                	xor    %eax,%eax
 1002729:	66 89 9d f4 fd ff ff 	mov    %bx,-0x20c(%ebp)
 1002730:	b9 81 00 00 00       	mov    $0x81,%ecx
 1002735:	8d bd f6 fd ff ff    	lea    -0x20a(%ebp),%edi
 100273b:	f3 ab                	rep stos %eax,%es:(%edi)
 100273d:	33 f6                	xor    %esi,%esi
 100273f:	46                   	inc    %esi
 1002740:	39 1d 1c 90 00 01    	cmp    %ebx,0x100901c
 1002746:	66 ab                	stos   %ax,%es:(%edi)
 1002748:	8b 3d 40 12 00 01    	mov    0x1001240,%edi
 100274e:	89 b5 f0 fd ff ff    	mov    %esi,-0x210(%ebp)
 1002754:	74 14                	je     0x100276a
 1002756:	53                   	push   %ebx
 1002757:	53                   	push   %ebx
 1002758:	6a 0e                	push   $0xe
 100275a:	ff 35 38 98 00 01    	pushl  0x1009838
 1002760:	ff d7                	call   *%edi
 1002762:	85 c0                	test   %eax,%eax
 1002764:	0f 84 9c 00 00 00    	je     0x1002806
 100276a:	53                   	push   %ebx
 100276b:	53                   	push   %ebx
 100276c:	68 b8 00 00 00       	push   $0xb8
 1002771:	ff 35 38 98 00 01    	pushl  0x1009838
 1002777:	ff d7                	call   *%edi
 1002779:	85 c0                	test   %eax,%eax
 100277b:	0f 84 7d 01 00 00    	je     0x10028fe
 1002781:	39 1d 1c 90 00 01    	cmp    %ebx,0x100901c
 1002787:	a1 40 90 00 01       	mov    0x1009040,%eax
 100278c:	bf 00 a9 00 01       	mov    $0x100a900,%edi
 1002791:	75 02                	jne    0x1002795
 1002793:	8b c7                	mov    %edi,%eax
 1002795:	8b 4d 08             	mov    0x8(%ebp),%ecx
 1002798:	f7 d9                	neg    %ecx
 100279a:	1b c9                	sbb    %ecx,%ecx
 100279c:	81 e1 00 10 00 00    	and    $0x1000,%ecx
 10027a2:	0f b7 c9             	movzwl %cx,%ecx
 10027a5:	83 c9 33             	or     $0x33,%ecx
 10027a8:	51                   	push   %ecx
 10027a9:	50                   	push   %eax
 10027aa:	ff 35 3c 90 00 01    	pushl  0x100903c
 10027b0:	89 35 54 98 00 01    	mov    %esi,0x1009854
 10027b6:	ff 35 54 90 00 01    	pushl  0x1009054
 10027bc:	ff 35 30 98 00 01    	pushl  0x1009830
 10027c2:	e8 a9 f7 ff ff       	call   0x1001f70
 10027c7:	83 f8 06             	cmp    $0x6,%eax
 10027ca:	89 85 f0 fd ff ff    	mov    %eax,-0x210(%ebp)
 10027d0:	89 1d 54 98 00 01    	mov    %ebx,0x1009854
 10027d6:	0f 85 22 01 00 00    	jne    0x10028fe
 10027dc:	39 1d 1c 90 00 01    	cmp    %ebx,0x100901c
 10027e2:	74 07                	je     0x10027eb
 10027e4:	68 cc 13 00 01       	push   $0x10013cc
 10027e9:	eb 23                	jmp    0x100280e
 10027eb:	a1 30 90 00 01       	mov    0x1009030,%eax
 10027f0:	53                   	push   %ebx
 10027f1:	57                   	push   %edi
 10027f2:	ff 35 30 98 00 01    	pushl  0x1009830
 10027f8:	a3 28 a5 00 01       	mov    %eax,0x100a528
 10027fd:	e8 ac 26 00 00       	call   0x1004eae
 1002802:	85 c0                	test   %eax,%eax
 1002804:	74 07                	je     0x100280d
 1002806:	8b c6                	mov    %esi,%eax
 1002808:	e9 fd 00 00 00       	jmp    0x100290a
 100280d:	57                   	push   %edi
 100280e:	8d 85 f4 fd ff ff    	lea    -0x20c(%ebp),%eax
 1002814:	50                   	push   %eax
 1002815:	ff 15 fc 10 00 01    	call   *0x10010fc
 100281b:	8b 3d e4 12 00 01    	mov    0x10012e4,%edi
 1002821:	bb 80 a6 00 01       	mov    $0x100a680,%ebx
 1002826:	eb 40                	jmp    0x1002868
 1002828:	ff 35 9c a6 00 01    	pushl  0x100a69c
 100282e:	8d 85 f4 fd ff ff    	lea    -0x20c(%ebp),%eax
 1002834:	50                   	push   %eax
 1002835:	ff 15 fc 10 00 01    	call   *0x10010fc
 100283b:	56                   	push   %esi
 100283c:	8d 85 f4 fd ff ff    	lea    -0x20c(%ebp),%eax
 1002842:	50                   	push   %eax
 1002843:	ff 35 30 98 00 01    	pushl  0x1009830
 1002849:	e8 60 26 00 00       	call   0x1004eae
 100284e:	85 c0                	test   %eax,%eax
 1002850:	8d 85 f4 fd ff ff    	lea    -0x20c(%ebp),%eax
 1002856:	0f 85 bd 00 00 00    	jne    0x1002919
 100285c:	68 00 a9 00 01       	push   $0x100a900
 1002861:	50                   	push   %eax
 1002862:	ff 15 fc 10 00 01    	call   *0x10010fc
 1002868:	8d 85 f4 fd ff ff    	lea    -0x20c(%ebp),%eax
 100286e:	a3 9c a6 00 01       	mov    %eax,0x100a69c
 1002873:	a1 90 90 00 01       	mov    0x1009090,%eax
 1002878:	53                   	push   %ebx
 1002879:	89 35 54 98 00 01    	mov    %esi,0x1009854
 100287f:	89 35 98 a6 00 01    	mov    %esi,0x100a698
 1002885:	c7 05 bc a6 00 01 c4 	movl   $0x10013c4,0x100a6bc
 100288c:	13 00 01 
 100288f:	c7 05 8c a6 00 01 40 	movl   $0x100a540,0x100a68c
 1002896:	a5 00 01 
 1002899:	c7 05 c4 a6 00 01 28 	movl   $0x1001a28,0x100a6c4
 10028a0:	1a 00 01 
 10028a3:	c7 05 c8 a6 00 01 a0 	movl   $0x10013a0,0x100a6c8
 10028aa:	13 00 01 
 10028ad:	c7 05 b4 a6 00 01 66 	movl   $0x888866,0x100a6b4
 10028b4:	88 88 00 
 10028b7:	a3 b0 a6 00 01       	mov    %eax,0x100a6b0
 10028bc:	ff d7                	call   *%edi
 10028be:	85 c0                	test   %eax,%eax
 10028c0:	0f 85 62 ff ff ff    	jne    0x1002828
 10028c6:	c7 85 f0 fd ff ff 02 	movl   $0x2,-0x210(%ebp)
 10028cd:	00 00 00 
 10028d0:	ff 15 e0 12 00 01    	call   *0x10012e0
 10028d6:	85 c0                	test   %eax,%eax
 10028d8:	74 1d                	je     0x10028f7
 10028da:	68 10 10 00 00       	push   $0x1010
 10028df:	ff 35 54 90 00 01    	pushl  0x1009054
 10028e5:	ff 35 4c 90 00 01    	pushl  0x100904c
 10028eb:	ff 35 30 98 00 01    	pushl  0x1009830
 10028f1:	ff 15 68 12 00 01    	call   *0x1001268
 10028f7:	83 25 54 98 00 01 00 	andl   $0x0,0x1009854
 10028fe:	33 c0                	xor    %eax,%eax
 1002900:	83 bd f0 fd ff ff 02 	cmpl   $0x2,-0x210(%ebp)
 1002907:	0f 95 c0             	setne  %al
 100290a:	8b 4d fc             	mov    -0x4(%ebp),%ecx
 100290d:	5f                   	pop    %edi
 100290e:	5e                   	pop    %esi
 100290f:	5b                   	pop    %ebx
 1002910:	e8 32 48 00 00       	call   0x1007147
 1002915:	c9                   	leave  
 1002916:	c2 04 00             	ret    $0x4
 1002919:	50                   	push   %eax
 100291a:	68 00 a9 00 01       	push   $0x100a900
 100291f:	ff 15 fc 10 00 01    	call   *0x10010fc
 1002925:	a1 28 a5 00 01       	mov    0x100a528,%eax
 100292a:	a3 30 90 00 01       	mov    %eax,0x1009030
 100292f:	eb c6                	jmp    0x10028f7
 1002931:	cc                   	int3   
 1002932:	cc                   	int3   
 1002933:	cc                   	int3   
 1002934:	cc                   	int3   
 1002935:	cc                   	int3   
 1002936:	8b ff                	mov    %edi,%edi
 1002938:	55                   	push   %ebp
 1002939:	8b ec                	mov    %esp,%ebp
 100293b:	83 ec 20             	sub    $0x20,%esp
 100293e:	56                   	push   %esi
 100293f:	57                   	push   %edi
 1002940:	ff 15 14 11 00 01    	call   *0x1001114
 1002946:	68 d8 13 00 01       	push   $0x10013d8
 100294b:	6a 29                	push   $0x29
 100294d:	8b f8                	mov    %eax,%edi
 100294f:	ff 15 1c 12 00 01    	call   *0x100121c
 1002955:	50                   	push   %eax
 1002956:	ff 15 10 11 00 01    	call   *0x1001110
 100295c:	33 f6                	xor    %esi,%esi
 100295e:	3b c6                	cmp    %esi,%eax
 1002960:	89 45 fc             	mov    %eax,-0x4(%ebp)
 1002963:	74 06                	je     0x100296b
 1002965:	6a 01                	push   $0x1
 1002967:	6a 01                	push   $0x1
 1002969:	ff d0                	call   *%eax
 100296b:	ff 75 14             	pushl  0x14(%ebp)
 100296e:	57                   	push   %edi
 100296f:	e8 74 f2 ff ff       	call   0x1001be8
 1002974:	50                   	push   %eax
 1002975:	ff 75 0c             	pushl  0xc(%ebp)
 1002978:	ff 75 08             	pushl  0x8(%ebp)
 100297b:	e8 e5 1b 00 00       	call   0x1004565
 1002980:	85 c0                	test   %eax,%eax
 1002982:	75 08                	jne    0x100298c
 1002984:	89 75 e8             	mov    %esi,-0x18(%ebp)
 1002987:	e9 b0 00 00 00       	jmp    0x1002a3c
 100298c:	53                   	push   %ebx
 100298d:	56                   	push   %esi
 100298e:	56                   	push   %esi
 100298f:	ff 15 0c 11 00 01    	call   *0x100110c
 1002995:	50                   	push   %eax
 1002996:	68 1c 1d 00 01       	push   $0x1001d1c
 100299b:	56                   	push   %esi
 100299c:	b8 0b 80 00 00       	mov    $0x800b,%eax
 10029a1:	50                   	push   %eax
 10029a2:	50                   	push   %eax
 10029a3:	ff 15 ac 12 00 01    	call   *0x10012ac
 10029a9:	8b 3d a8 12 00 01    	mov    0x10012a8,%edi
 10029af:	8b d8                	mov    %eax,%ebx
 10029b1:	eb 5f                	jmp    0x1002a12
 10029b3:	83 7d e4 50          	cmpl   $0x50,-0x1c(%ebp)
 10029b7:	75 13                	jne    0x10029cc
 10029b9:	56                   	push   %esi
 10029ba:	56                   	push   %esi
 10029bb:	68 01 80 00 00       	push   $0x8001
 10029c0:	ff 35 30 98 00 01    	pushl  0x1009830
 10029c6:	ff 15 a4 12 00 01    	call   *0x10012a4
 10029cc:	a1 3c 98 00 01       	mov    0x100983c,%eax
 10029d1:	3b c6                	cmp    %esi,%eax
 10029d3:	74 0f                	je     0x10029e4
 10029d5:	8d 4d e0             	lea    -0x20(%ebp),%ecx
 10029d8:	51                   	push   %ecx
 10029d9:	50                   	push   %eax
 10029da:	ff 15 a0 12 00 01    	call   *0x10012a0
 10029e0:	85 c0                	test   %eax,%eax
 10029e2:	75 2e                	jne    0x1002a12
 10029e4:	8d 45 e0             	lea    -0x20(%ebp),%eax
 10029e7:	50                   	push   %eax
 10029e8:	ff 35 d8 a6 00 01    	pushl  0x100a6d8
 10029ee:	ff 35 30 98 00 01    	pushl  0x1009830
 10029f4:	ff 15 9c 12 00 01    	call   *0x100129c
 10029fa:	85 c0                	test   %eax,%eax
 10029fc:	75 14                	jne    0x1002a12
 10029fe:	8d 45 e0             	lea    -0x20(%ebp),%eax
 1002a01:	50                   	push   %eax
 1002a02:	ff 15 98 12 00 01    	call   *0x1001298
 1002a08:	8d 45 e0             	lea    -0x20(%ebp),%eax
 1002a0b:	50                   	push   %eax
 1002a0c:	ff 15 94 12 00 01    	call   *0x1001294
 1002a12:	56                   	push   %esi
 1002a13:	56                   	push   %esi
 1002a14:	8d 45 e0             	lea    -0x20(%ebp),%eax
 1002a17:	56                   	push   %esi
 1002a18:	50                   	push   %eax
 1002a19:	ff d7                	call   *%edi
 1002a1b:	85 c0                	test   %eax,%eax
 1002a1d:	75 94                	jne    0x10029b3
 1002a1f:	e8 05 ef ff ff       	call   0x1001929
 1002a24:	ff 35 8c ab 00 01    	pushl  0x100ab8c
 1002a2a:	ff 15 dc 10 00 01    	call   *0x10010dc
 1002a30:	3b de                	cmp    %esi,%ebx
 1002a32:	74 07                	je     0x1002a3b
 1002a34:	53                   	push   %ebx
 1002a35:	ff 15 90 12 00 01    	call   *0x1001290
 1002a3b:	5b                   	pop    %ebx
 1002a3c:	39 75 fc             	cmp    %esi,-0x4(%ebp)
 1002a3f:	74 06                	je     0x1002a47
 1002a41:	56                   	push   %esi
 1002a42:	6a 01                	push   $0x1
 1002a44:	ff 55 fc             	call   *-0x4(%ebp)
 1002a47:	8b 45 e8             	mov    -0x18(%ebp),%eax
 1002a4a:	5f                   	pop    %edi
 1002a4b:	5e                   	pop    %esi
 1002a4c:	c9                   	leave  
 1002a4d:	c2 10 00             	ret    $0x10
 1002a50:	cc                   	int3   
 1002a51:	cc                   	int3   
 1002a52:	cc                   	int3   
 1002a53:	cc                   	int3   
 1002a54:	cc                   	int3   
 1002a55:	8b ff                	mov    %edi,%edi
 1002a57:	55                   	push   %ebp
 1002a58:	8b ec                	mov    %esp,%ebp
 1002a5a:	81 ec c8 07 00 00    	sub    $0x7c8,%esp
 1002a60:	a1 04 96 00 01       	mov    0x1009604,%eax
 1002a65:	66 83 a5 fc fe ff ff 	andw   $0x0,-0x104(%ebp)
 1002a6c:	00 
 1002a6d:	56                   	push   %esi
 1002a6e:	8b 75 08             	mov    0x8(%ebp),%esi
 1002a71:	57                   	push   %edi
 1002a72:	6a 3f                	push   $0x3f
 1002a74:	89 45 fc             	mov    %eax,-0x4(%ebp)
 1002a77:	59                   	pop    %ecx
 1002a78:	ff 35 40 90 00 01    	pushl  0x1009040
 1002a7e:	33 c0                	xor    %eax,%eax
 1002a80:	8d bd fe fe ff ff    	lea    -0x102(%ebp),%edi
 1002a86:	f3 ab                	rep stos %eax,%es:(%edi)
 1002a88:	56                   	push   %esi
 1002a89:	66 ab                	stos   %ax,%es:(%edi)
 1002a8b:	ff 15 28 11 00 01    	call   *0x1001128
 1002a91:	85 c0                	test   %eax,%eax
 1002a93:	75 19                	jne    0x1002aae
 1002a95:	ff 35 40 90 00 01    	pushl  0x1009040
 1002a9b:	8d 85 90 fc ff ff    	lea    -0x370(%ebp),%eax
 1002aa1:	68 36 01 00 00       	push   $0x136
 1002aa6:	50                   	push   %eax
 1002aa7:	e8 5d f9 ff ff       	call   0x1002409
 1002aac:	eb 66                	jmp    0x1002b14
 1002aae:	56                   	push   %esi
 1002aaf:	ff 15 24 11 00 01    	call   *0x1001124
 1002ab5:	8d 85 38 f8 ff ff    	lea    -0x7c8(%ebp),%eax
 1002abb:	50                   	push   %eax
 1002abc:	56                   	push   %esi
 1002abd:	ff 15 20 11 00 01    	call   *0x1001120
 1002ac3:	8b f8                	mov    %eax,%edi
 1002ac5:	83 ff ff             	cmp    $0xffffffff,%edi
 1002ac8:	74 22                	je     0x1002aec
 1002aca:	8d 85 64 f8 ff ff    	lea    -0x79c(%ebp),%eax
 1002ad0:	50                   	push   %eax
 1002ad1:	be 04 01 00 00       	mov    $0x104,%esi
 1002ad6:	56                   	push   %esi
 1002ad7:	8d 85 88 fa ff ff    	lea    -0x578(%ebp),%eax
 1002add:	50                   	push   %eax
 1002ade:	e8 26 f9 ff ff       	call   0x1002409
 1002ae3:	57                   	push   %edi
 1002ae4:	ff 15 1c 11 00 01    	call   *0x100111c
 1002aea:	eb 13                	jmp    0x1002aff
 1002aec:	56                   	push   %esi
 1002aed:	be 04 01 00 00       	mov    $0x104,%esi
 1002af2:	56                   	push   %esi
 1002af3:	8d 85 88 fa ff ff    	lea    -0x578(%ebp),%eax
 1002af9:	50                   	push   %eax
 1002afa:	e8 0a f9 ff ff       	call   0x1002409
 1002aff:	56                   	push   %esi
 1002b00:	8d 85 90 fc ff ff    	lea    -0x370(%ebp),%eax
 1002b06:	50                   	push   %eax
 1002b07:	8d 85 88 fa ff ff    	lea    -0x578(%ebp),%eax
 1002b0d:	50                   	push   %eax
 1002b0e:	ff 15 d4 12 00 01    	call   *0x10012d4
 1002b14:	6a 01                	push   $0x1
 1002b16:	6a 01                	push   $0x1
 1002b18:	ff 35 c8 90 00 01    	pushl  0x10090c8
 1002b1e:	8d 85 fc fe ff ff    	lea    -0x104(%ebp),%eax
 1002b24:	6a 7f                	push   $0x7f
 1002b26:	50                   	push   %eax
 1002b27:	ff 15 14 13 00 01    	call   *0x1001314
 1002b2d:	a1 34 98 00 01       	mov    0x1009834,%eax
 1002b32:	83 c4 14             	add    $0x14,%esp
 1002b35:	85 c0                	test   %eax,%eax
 1002b37:	5f                   	pop    %edi
 1002b38:	5e                   	pop    %esi
 1002b39:	74 15                	je     0x1002b50
 1002b3b:	8d 8d fc fe ff ff    	lea    -0x104(%ebp),%ecx
 1002b41:	51                   	push   %ecx
 1002b42:	6a 01                	push   $0x1
 1002b44:	68 0b 04 00 00       	push   $0x40b
 1002b49:	50                   	push   %eax
 1002b4a:	ff 15 40 12 00 01    	call   *0x1001240
 1002b50:	ff 35 44 90 00 01    	pushl  0x1009044
 1002b56:	8d 85 90 fc ff ff    	lea    -0x370(%ebp),%eax
 1002b5c:	50                   	push   %eax
 1002b5d:	ff 15 18 11 00 01    	call   *0x1001118
 1002b63:	8d 85 90 fc ff ff    	lea    -0x370(%ebp),%eax
 1002b69:	50                   	push   %eax
 1002b6a:	ff 35 30 98 00 01    	pushl  0x1009830
 1002b70:	ff 15 f0 11 00 01    	call   *0x10011f0
 1002b76:	8b 4d fc             	mov    -0x4(%ebp),%ecx
 1002b79:	e8 c9 45 00 00       	call   0x1007147
 1002b7e:	c9                   	leave  
 1002b7f:	c2 04 00             	ret    $0x4
 1002b82:	cc                   	int3   
 1002b83:	cc                   	int3   
 1002b84:	cc                   	int3   
 1002b85:	cc                   	int3   
 1002b86:	cc                   	int3   
 1002b87:	8b ff                	mov    %edi,%edi
 1002b89:	55                   	push   %ebp
 1002b8a:	8b ec                	mov    %esp,%ebp
 1002b8c:	81 ec 60 02 00 00    	sub    $0x260,%esp
 1002b92:	a1 04 96 00 01       	mov    0x1009604,%eax
 1002b97:	8b 55 08             	mov    0x8(%ebp),%edx
 1002b9a:	53                   	push   %ebx
 1002b9b:	56                   	push   %esi
 1002b9c:	57                   	push   %edi
 1002b9d:	89 45 fc             	mov    %eax,-0x4(%ebp)
 1002ba0:	33 f6                	xor    %esi,%esi
 1002ba2:	33 c0                	xor    %eax,%eax
 1002ba4:	66 89 b5 f4 fd ff ff 	mov    %si,-0x20c(%ebp)
 1002bab:	b9 81 00 00 00       	mov    $0x81,%ecx
 1002bb0:	8d bd f6 fd ff ff    	lea    -0x20a(%ebp),%edi
 1002bb6:	f3 ab                	rep stos %eax,%es:(%edi)
 1002bb8:	66 ab                	stos   %ax,%es:(%edi)
 1002bba:	0f b7 7d 0c          	movzwl 0xc(%ebp),%edi
 1002bbe:	83 ff 40             	cmp    $0x40,%edi
 1002bc1:	89 95 f0 fd ff ff    	mov    %edx,-0x210(%ebp)
 1002bc7:	0f 8f f9 06 00 00    	jg     0x10032c6
 1002bcd:	0f 84 db 06 00 00    	je     0x10032ae
 1002bd3:	83 ff 15             	cmp    $0x15,%edi
 1002bd6:	0f 8f ce 02 00 00    	jg     0x1002eaa
 1002bdc:	0f 84 ec 03 00 00    	je     0x1002fce
 1002be2:	83 ff 05             	cmp    $0x5,%edi
 1002be5:	0f 8f 74 02 00 00    	jg     0x1002e5f
 1002beb:	0f 84 0b 02 00 00    	je     0x1002dfc
 1002bf1:	4f                   	dec    %edi
 1002bf2:	0f 84 f8 01 00 00    	je     0x1002df0
 1002bf8:	4f                   	dec    %edi
 1002bf9:	0f 84 0e 01 00 00    	je     0x1002d0d
 1002bff:	4f                   	dec    %edi
 1002c00:	74 0a                	je     0x1002c0c
 1002c02:	4f                   	dec    %edi
 1002c03:	74 32                	je     0x1002c37
 1002c05:	33 c0                	xor    %eax,%eax
 1002c07:	e9 5e 07 00 00       	jmp    0x100336a
 1002c0c:	39 35 1c 90 00 01    	cmp    %esi,0x100901c
 1002c12:	a1 30 90 00 01       	mov    0x1009030,%eax
 1002c17:	a3 28 a5 00 01       	mov    %eax,0x100a528
 1002c1c:	75 19                	jne    0x1002c37
 1002c1e:	56                   	push   %esi
 1002c1f:	68 00 a9 00 01       	push   $0x100a900
 1002c24:	ff 35 30 98 00 01    	pushl  0x1009830
 1002c2a:	e8 7f 22 00 00       	call   0x1004eae
 1002c2f:	85 c0                	test   %eax,%eax
 1002c31:	0f 85 30 07 00 00    	jne    0x1003367
 1002c37:	39 35 1c 90 00 01    	cmp    %esi,0x100901c
 1002c3d:	8b 3d 30 11 00 01    	mov    0x1001130,%edi
 1002c43:	8d 85 f4 fd ff ff    	lea    -0x20c(%ebp),%eax
 1002c49:	a3 9c a6 00 01       	mov    %eax,0x100a69c
 1002c4e:	a1 90 90 00 01       	mov    0x1009090,%eax
 1002c53:	a3 b0 a6 00 01       	mov    %eax,0x100a6b0
 1002c58:	c7 05 b4 a6 00 01 66 	movl   $0x888866,0x100a6b4
 1002c5f:	88 88 00 
 1002c62:	c7 05 c8 a6 00 01 a0 	movl   $0x10013a0,0x100a6c8
 1002c69:	13 00 01 
 1002c6c:	c7 05 c4 a6 00 01 28 	movl   $0x1001a28,0x100a6c4
 1002c73:	1a 00 01 
 1002c76:	c7 05 8c a6 00 01 40 	movl   $0x100a540,0x100a68c
 1002c7d:	a5 00 01 
 1002c80:	c7 05 bc a6 00 01 c4 	movl   $0x10013c4,0x100a6bc
 1002c87:	13 00 01 
 1002c8a:	bb 04 01 00 00       	mov    $0x104,%ebx
 1002c8f:	8d 85 f4 fd ff ff    	lea    -0x20c(%ebp),%eax
 1002c95:	75 0b                	jne    0x1002ca2
 1002c97:	53                   	push   %ebx
 1002c98:	68 00 a9 00 01       	push   $0x100a900
 1002c9d:	50                   	push   %eax
 1002c9e:	ff d7                	call   *%edi
 1002ca0:	eb 0c                	jmp    0x1002cae
 1002ca2:	68 cc 13 00 01       	push   $0x10013cc
 1002ca7:	50                   	push   %eax
 1002ca8:	ff 15 fc 10 00 01    	call   *0x10010fc
 1002cae:	33 c0                	xor    %eax,%eax
 1002cb0:	40                   	inc    %eax
 1002cb1:	68 80 a6 00 01       	push   $0x100a680
 1002cb6:	a3 54 98 00 01       	mov    %eax,0x1009854
 1002cbb:	a3 98 a6 00 01       	mov    %eax,0x100a698
 1002cc0:	ff 15 e4 12 00 01    	call   *0x10012e4
 1002cc6:	85 c0                	test   %eax,%eax
 1002cc8:	74 33                	je     0x1002cfd
 1002cca:	6a 01                	push   $0x1
 1002ccc:	8d 85 f4 fd ff ff    	lea    -0x20c(%ebp),%eax
 1002cd2:	50                   	push   %eax
 1002cd3:	ff b5 f0 fd ff ff    	pushl  -0x210(%ebp)
 1002cd9:	e8 d0 21 00 00       	call   0x1004eae
 1002cde:	85 c0                	test   %eax,%eax
 1002ce0:	74 20                	je     0x1002d02
 1002ce2:	53                   	push   %ebx
 1002ce3:	8d 85 f4 fd ff ff    	lea    -0x20c(%ebp),%eax
 1002ce9:	50                   	push   %eax
 1002cea:	68 00 a9 00 01       	push   $0x100a900
 1002cef:	ff d7                	call   *%edi
 1002cf1:	a1 28 a5 00 01       	mov    0x100a528,%eax
 1002cf6:	a3 30 90 00 01       	mov    %eax,0x1009030
 1002cfb:	eb 05                	jmp    0x1002d02
 1002cfd:	e8 ee f2 ff ff       	call   0x1001ff0
 1002d02:	89 35 54 98 00 01    	mov    %esi,0x1009854
 1002d08:	e9 5a 06 00 00       	jmp    0x1003367
 1002d0d:	56                   	push   %esi
 1002d0e:	e8 fc f9 ff ff       	call   0x100270f
 1002d13:	85 c0                	test   %eax,%eax
 1002d15:	0f 84 4c 06 00 00    	je     0x1003367
 1002d1b:	8b 1d 30 90 00 01    	mov    0x1009030,%ebx
 1002d21:	8d 85 f4 fd ff ff    	lea    -0x20c(%ebp),%eax
 1002d27:	68 cc 13 00 01       	push   $0x10013cc
 1002d2c:	50                   	push   %eax
 1002d2d:	a3 9c a6 00 01       	mov    %eax,0x100a69c
 1002d32:	ff 15 fc 10 00 01    	call   *0x10010fc
 1002d38:	a1 8c 90 00 01       	mov    0x100908c,%eax
 1002d3d:	68 80 a6 00 01       	push   $0x100a680
 1002d42:	a3 b0 a6 00 01       	mov    %eax,0x100a6b0
 1002d47:	c7 05 8c a6 00 01 e0 	movl   $0x100a5e0,0x100a68c
 1002d4e:	a5 00 01 
 1002d51:	c7 05 bc a6 00 01 c4 	movl   $0x10013c4,0x100a6bc
 1002d58:	13 00 01 
 1002d5b:	c7 05 b4 a6 00 01 64 	movl   $0x881064,0x100a6b4
 1002d62:	10 88 00 
 1002d65:	c7 05 98 a6 00 01 01 	movl   $0x1,0x100a698
 1002d6c:	00 00 00 
 1002d6f:	c7 05 c8 a6 00 01 a0 	movl   $0x10013a0,0x100a6c8
 1002d76:	13 00 01 
 1002d79:	c7 05 c4 a6 00 01 52 	movl   $0x1002452,0x100a6c4
 1002d80:	24 00 01 
 1002d83:	ff 15 d8 12 00 01    	call   *0x10012d8
 1002d89:	85 c0                	test   %eax,%eax
 1002d8b:	74 53                	je     0x1002de0
 1002d8d:	8b 3d 80 a4 00 01    	mov    0x100a480,%edi
 1002d93:	56                   	push   %esi
 1002d94:	68 80 00 00 00       	push   $0x80
 1002d99:	6a 03                	push   $0x3
 1002d9b:	56                   	push   %esi
 1002d9c:	6a 03                	push   $0x3
 1002d9e:	68 00 00 00 80       	push   $0x80000000
 1002da3:	8d 85 f4 fd ff ff    	lea    -0x20c(%ebp),%eax
 1002da9:	50                   	push   %eax
 1002daa:	ff 15 04 11 00 01    	call   *0x1001104
 1002db0:	ff 35 30 90 00 01    	pushl  0x1009030
 1002db6:	a3 80 a4 00 01       	mov    %eax,0x100a480
 1002dbb:	8d 85 f4 fd ff ff    	lea    -0x20c(%ebp),%eax
 1002dc1:	50                   	push   %eax
 1002dc2:	e8 b2 23 00 00       	call   0x1005179
 1002dc7:	85 c0                	test   %eax,%eax
 1002dc9:	0f 85 98 05 00 00    	jne    0x1003367
 1002dcf:	89 3d 80 a4 00 01    	mov    %edi,0x100a480
 1002dd5:	89 1d 30 90 00 01    	mov    %ebx,0x1009030
 1002ddb:	e9 87 05 00 00       	jmp    0x1003367
 1002de0:	89 1d 30 90 00 01    	mov    %ebx,0x1009030
 1002de6:	e8 05 f2 ff ff       	call   0x1001ff0
 1002deb:	e9 77 05 00 00       	jmp    0x1003367
 1002df0:	6a 01                	push   $0x1
 1002df2:	e8 08 1f 00 00       	call   0x1004cff
 1002df7:	e9 6b 05 00 00       	jmp    0x1003367
 1002dfc:	8b 3d c4 12 00 01    	mov    0x10012c4,%edi
 1002e02:	bb a0 a4 00 01       	mov    $0x100a4a0,%ebx
 1002e07:	eb 2c                	jmp    0x1002e35
 1002e09:	ff 15 e0 12 00 01    	call   *0x10012e0
 1002e0f:	3d 0b 10 00 00       	cmp    $0x100b,%eax
 1002e14:	74 0e                	je     0x1002e24
 1002e16:	3d 09 10 00 00       	cmp    $0x1009,%eax
 1002e1b:	74 07                	je     0x1002e24
 1002e1d:	3d 0c 10 00 00       	cmp    $0x100c,%eax
 1002e22:	75 c2                	jne    0x1002de6
 1002e24:	e8 00 eb ff ff       	call   0x1001929
 1002e29:	89 35 ac a4 00 01    	mov    %esi,0x100a4ac
 1002e2f:	89 35 a8 a4 00 01    	mov    %esi,0x100a4a8
 1002e35:	53                   	push   %ebx
 1002e36:	ff d7                	call   *%edi
 1002e38:	85 c0                	test   %eax,%eax
 1002e3a:	74 cd                	je     0x1002e09
 1002e3c:	8b 35 fc 10 00 01    	mov    0x10010fc,%esi
 1002e42:	68 40 a3 00 01       	push   $0x100a340
 1002e47:	68 e0 a3 00 01       	push   $0x100a3e0
 1002e4c:	ff d6                	call   *%esi
 1002e4e:	68 90 a3 00 01       	push   $0x100a390
 1002e53:	68 30 a4 00 01       	push   $0x100a430
 1002e58:	ff d6                	call   *%esi
 1002e5a:	e9 08 05 00 00       	jmp    0x1003367
 1002e5f:	83 ef 06             	sub    $0x6,%edi
 1002e62:	74 3b                	je     0x1002e9f
 1002e64:	4f                   	dec    %edi
 1002e65:	74 28                	je     0x1002e8f
 1002e67:	83 ef 08             	sub    $0x8,%edi
 1002e6a:	0f 84 f7 04 00 00    	je     0x1003367
 1002e70:	4f                   	dec    %edi
 1002e71:	0f 85 8e fd ff ff    	jne    0x1002c05
 1002e77:	56                   	push   %esi
 1002e78:	56                   	push   %esi
 1002e79:	68 c7 00 00 00       	push   $0xc7
 1002e7e:	ff 35 38 98 00 01    	pushl  0x1009838
 1002e84:	ff 15 40 12 00 01    	call   *0x1001240
 1002e8a:	e9 d8 04 00 00       	jmp    0x1003367
 1002e8f:	56                   	push   %esi
 1002e90:	56                   	push   %esi
 1002e91:	6a 10                	push   $0x10
 1002e93:	52                   	push   %edx
 1002e94:	ff 15 a4 12 00 01    	call   *0x10012a4
 1002e9a:	e9 c8 04 00 00       	jmp    0x1003367
 1002e9f:	56                   	push   %esi
 1002ea0:	e8 a6 3f 00 00       	call   0x1006e4b
 1002ea5:	e9 bd 04 00 00       	jmp    0x1003367
 1002eaa:	83 ff 1a             	cmp    $0x1a,%edi
 1002ead:	0f 8f 66 01 00 00    	jg     0x1003019
 1002eb3:	0f 84 55 01 00 00    	je     0x100300e
 1002eb9:	83 ef 16             	sub    $0x16,%edi
 1002ebc:	0f 84 f4 00 00 00    	je     0x1002fb6
 1002ec2:	4f                   	dec    %edi
 1002ec3:	0f 84 93 00 00 00    	je     0x1002f5c
 1002ec9:	4f                   	dec    %edi
 1002eca:	74 5e                	je     0x1002f2a
 1002ecc:	4f                   	dec    %edi
 1002ecd:	0f 85 32 fd ff ff    	jne    0x1002c05
 1002ed3:	ff 35 30 98 00 01    	pushl  0x1009830
 1002ed9:	ff 15 64 12 00 01    	call   *0x1001264
 1002edf:	8b 3d 40 12 00 01    	mov    0x1001240,%edi
 1002ee5:	56                   	push   %esi
 1002ee6:	56                   	push   %esi
 1002ee7:	6a 0e                	push   $0xe
 1002ee9:	ff 35 38 98 00 01    	pushl  0x1009838
 1002eef:	8b d8                	mov    %eax,%ebx
 1002ef1:	ff d7                	call   *%edi
 1002ef3:	50                   	push   %eax
 1002ef4:	56                   	push   %esi
 1002ef5:	68 b1 00 00 00       	push   $0xb1
 1002efa:	ff 35 38 98 00 01    	pushl  0x1009838
 1002f00:	ff d7                	call   *%edi
 1002f02:	56                   	push   %esi
 1002f03:	56                   	push   %esi
 1002f04:	68 b7 00 00 00       	push   $0xb7
 1002f09:	ff 35 38 98 00 01    	pushl  0x1009838
 1002f0f:	ff d7                	call   *%edi
 1002f11:	6a 01                	push   $0x1
 1002f13:	6a 19                	push   $0x19
 1002f15:	6a 01                	push   $0x1
 1002f17:	53                   	push   %ebx
 1002f18:	ff 15 60 12 00 01    	call   *0x1001260
 1002f1e:	50                   	push   %eax
 1002f1f:	ff 15 5c 12 00 01    	call   *0x100125c
 1002f25:	e9 3d 04 00 00       	jmp    0x1003367
 1002f2a:	56                   	push   %esi
 1002f2b:	68 a6 21 00 01       	push   $0x10021a6
 1002f30:	ff 35 30 98 00 01    	pushl  0x1009830
 1002f36:	6a 0e                	push   $0xe
 1002f38:	ff 35 80 ab 00 01    	pushl  0x100ab80
 1002f3e:	ff 15 98 11 00 01    	call   *0x1001198
 1002f44:	85 c0                	test   %eax,%eax
 1002f46:	0f 85 1b 04 00 00    	jne    0x1003367
 1002f4c:	ff 35 94 ab 00 01    	pushl  0x100ab94
 1002f52:	e8 42 ec ff ff       	call   0x1001b99
 1002f57:	e9 0b 04 00 00       	jmp    0x1003367
 1002f5c:	a1 3c 98 00 01       	mov    0x100983c,%eax
 1002f61:	3b c6                	cmp    %esi,%eax
 1002f63:	74 0c                	je     0x1002f71
 1002f65:	50                   	push   %eax
 1002f66:	ff 15 78 12 00 01    	call   *0x1001278
 1002f6c:	e9 f6 03 00 00       	jmp    0x1003367
 1002f71:	68 00 a5 00 01       	push   $0x100a500
 1002f76:	c7 05 0c a5 00 01 10 	movl   $0x10010,0x100a50c
 1002f7d:	00 01 00 
 1002f80:	c7 05 14 a5 00 01 00 	movl   $0x100a700,0x100a514
 1002f87:	a7 00 01 
 1002f8a:	66 c7 05 1a a5 00 01 	movw   $0x80,0x100a51a
 1002f91:	80 00 
 1002f93:	c7 05 10 a5 00 01 00 	movl   $0x100a800,0x100a510
 1002f9a:	a8 00 01 
 1002f9d:	66 c7 05 18 a5 00 01 	movw   $0x80,0x100a518
 1002fa4:	80 00 
 1002fa6:	ff 15 dc 12 00 01    	call   *0x10012dc
 1002fac:	a3 3c 98 00 01       	mov    %eax,0x100983c
 1002fb1:	e9 b1 03 00 00       	jmp    0x1003367
 1002fb6:	66 39 35 00 a8 00 01 	cmp    %si,0x100a800
 1002fbd:	74 0f                	je     0x1002fce
 1002fbf:	68 00 a8 00 01       	push   $0x100a800
 1002fc4:	e8 83 29 00 00       	call   0x100594c
 1002fc9:	e9 99 03 00 00       	jmp    0x1003367
 1002fce:	a1 3c 98 00 01       	mov    0x100983c,%eax
 1002fd3:	3b c6                	cmp    %esi,%eax
 1002fd5:	75 8e                	jne    0x1002f65
 1002fd7:	68 00 a5 00 01       	push   $0x100a500
 1002fdc:	c7 05 0c a5 00 01 01 	movl   $0x10001,0x100a50c
 1002fe3:	00 01 00 
 1002fe6:	89 35 14 a5 00 01    	mov    %esi,0x100a514
 1002fec:	66 89 35 1a a5 00 01 	mov    %si,0x100a51a
 1002ff3:	c7 05 10 a5 00 01 00 	movl   $0x100a800,0x100a510
 1002ffa:	a8 00 01 
 1002ffd:	66 c7 05 18 a5 00 01 	movw   $0x80,0x100a518
 1003004:	80 00 
 1003006:	ff 15 c8 12 00 01    	call   *0x10012c8
 100300c:	eb 9e                	jmp    0x1002fac
 100300e:	56                   	push   %esi
 100300f:	e8 fc 3e 00 00       	call   0x1006f10
 1003014:	e9 4e 03 00 00       	jmp    0x1003367
 1003019:	6a 1b                	push   $0x1b
 100301b:	5b                   	pop    %ebx
 100301c:	2b fb                	sub    %ebx,%edi
 100301e:	0f 84 f7 01 00 00    	je     0x100321b
 1003024:	83 ef 05             	sub    $0x5,%edi
 1003027:	0f 84 11 01 00 00    	je     0x100313e
 100302d:	4f                   	dec    %edi
 100302e:	0f 85 d1 fb ff ff    	jne    0x1002c05
 1003034:	56                   	push   %esi
 1003035:	ff 15 94 11 00 01    	call   *0x1001194
 100303b:	8b d8                	mov    %eax,%ebx
 100303d:	3b de                	cmp    %esi,%ebx
 100303f:	0f 84 22 03 00 00    	je     0x1003367
 1003045:	8b 85 f0 fd ff ff    	mov    -0x210(%ebp),%eax
 100304b:	68 d0 02 00 00       	push   $0x2d0
 1003050:	6a 5a                	push   $0x5a
 1003052:	bf 20 ab 00 01       	mov    $0x100ab20,%edi
 1003057:	53                   	push   %ebx
 1003058:	c7 85 a0 fd ff ff 3c 	movl   $0x3c,-0x260(%ebp)
 100305f:	00 00 00 
 1003062:	89 85 a4 fd ff ff    	mov    %eax,-0x25c(%ebp)
 1003068:	89 bd ac fd ff ff    	mov    %edi,-0x254(%ebp)
 100306e:	ff 15 60 10 00 01    	call   *0x1001060
 1003074:	50                   	push   %eax
 1003075:	ff 35 18 90 00 01    	pushl  0x1009018
 100307b:	ff 15 2c 11 00 01    	call   *0x100112c
 1003081:	53                   	push   %ebx
 1003082:	f7 d8                	neg    %eax
 1003084:	56                   	push   %esi
 1003085:	a3 20 ab 00 01       	mov    %eax,0x100ab20
 100308a:	c7 85 b4 fd ff ff 41 	movl   $0x1000041,-0x24c(%ebp)
 1003091:	00 00 01 
 1003094:	89 b5 b8 fd ff ff    	mov    %esi,-0x248(%ebp)
 100309a:	89 b5 bc fd ff ff    	mov    %esi,-0x244(%ebp)
 10030a0:	89 b5 c0 fd ff ff    	mov    %esi,-0x240(%ebp)
 10030a6:	89 b5 c4 fd ff ff    	mov    %esi,-0x23c(%ebp)
 10030ac:	89 b5 c8 fd ff ff    	mov    %esi,-0x238(%ebp)
 10030b2:	89 b5 cc fd ff ff    	mov    %esi,-0x234(%ebp)
 10030b8:	66 c7 85 d0 fd ff ff 	movw   $0x2000,-0x230(%ebp)
 10030bf:	00 20 
 10030c1:	89 b5 d4 fd ff ff    	mov    %esi,-0x22c(%ebp)
 10030c7:	89 b5 d8 fd ff ff    	mov    %esi,-0x228(%ebp)
 10030cd:	ff 15 90 11 00 01    	call   *0x1001190
 10030d3:	8d 85 a0 fd ff ff    	lea    -0x260(%ebp),%eax
 10030d9:	50                   	push   %eax
 10030da:	ff 15 d0 12 00 01    	call   *0x10012d0
 10030e0:	85 c0                	test   %eax,%eax
 10030e2:	0f 84 7f 02 00 00    	je     0x1003367
 10030e8:	ff 35 84 ab 00 01    	pushl  0x100ab84
 10030ee:	8b 1d 8c 11 00 01    	mov    0x100118c,%ebx
 10030f4:	ff d3                	call   *%ebx
 10030f6:	57                   	push   %edi
 10030f7:	ff 15 64 10 00 01    	call   *0x1001064
 10030fd:	8b f8                	mov    %eax,%edi
 10030ff:	3b fe                	cmp    %esi,%edi
 1003101:	74 2e                	je     0x1003131
 1003103:	ff 35 7c ab 00 01    	pushl  0x100ab7c
 1003109:	ff 15 68 10 00 01    	call   *0x1001068
 100310f:	6a 01                	push   $0x1
 1003111:	57                   	push   %edi
 1003112:	6a 30                	push   $0x30
 1003114:	ff 35 38 98 00 01    	pushl  0x1009838
 100311a:	89 3d 7c ab 00 01    	mov    %edi,0x100ab7c
 1003120:	ff 15 40 12 00 01    	call   *0x1001240
 1003126:	8b 85 b0 fd ff ff    	mov    -0x250(%ebp),%eax
 100312c:	a3 18 90 00 01       	mov    %eax,0x1009018
 1003131:	ff 35 88 ab 00 01    	pushl  0x100ab88
 1003137:	ff d3                	call   *%ebx
 1003139:	e9 29 02 00 00       	jmp    0x1003367
 100313e:	a1 50 98 00 01       	mov    0x1009850,%eax
 1003143:	f7 d8                	neg    %eax
 1003145:	1b c0                	sbb    %eax,%eax
 1003147:	25 00 00 10 00       	and    $0x100000,%eax
 100314c:	05 04 01 20 50       	add    $0x50200104,%eax
 1003151:	50                   	push   %eax
 1003152:	e8 ea 29 00 00       	call   0x1005b41
 1003157:	85 c0                	test   %eax,%eax
 1003159:	74 12                	je     0x100316d
 100315b:	33 c0                	xor    %eax,%eax
 100315d:	39 35 50 98 00 01    	cmp    %esi,0x1009850
 1003163:	0f 94 c0             	sete   %al
 1003166:	a3 50 98 00 01       	mov    %eax,0x1009850
 100316b:	eb 1a                	jmp    0x1003187
 100316d:	6a 30                	push   $0x30
 100316f:	ff 35 54 90 00 01    	pushl  0x1009054
 1003175:	ff 35 6c 90 00 01    	pushl  0x100906c
 100317b:	ff 35 30 98 00 01    	pushl  0x1009830
 1003181:	ff 15 68 12 00 01    	call   *0x1001268
 1003187:	39 35 50 98 00 01    	cmp    %esi,0x1009850
 100318d:	74 50                	je     0x10031df
 100318f:	a1 40 98 00 01       	mov    0x1009840,%eax
 1003194:	3b c6                	cmp    %esi,%eax
 1003196:	a3 44 98 00 01       	mov    %eax,0x1009844
 100319b:	74 13                	je     0x10031b0
 100319d:	56                   	push   %esi
 100319e:	53                   	push   %ebx
 100319f:	68 11 01 00 00       	push   $0x111
 10031a4:	ff b5 f0 fd ff ff    	pushl  -0x210(%ebp)
 10031aa:	ff 15 40 12 00 01    	call   *0x1001240
 10031b0:	ff 35 30 98 00 01    	pushl  0x1009830
 10031b6:	ff 15 64 12 00 01    	call   *0x1001264
 10031bc:	56                   	push   %esi
 10031bd:	8b 35 60 12 00 01    	mov    0x1001260,%esi
 10031c3:	53                   	push   %ebx
 10031c4:	8b f8                	mov    %eax,%edi
 10031c6:	6a 03                	push   $0x3
 10031c8:	57                   	push   %edi
 10031c9:	ff d6                	call   *%esi
 10031cb:	50                   	push   %eax
 10031cc:	ff 15 48 12 00 01    	call   *0x1001248
 10031d2:	6a 01                	push   $0x1
 10031d4:	53                   	push   %ebx
 10031d5:	6a 03                	push   $0x3
 10031d7:	57                   	push   %edi
 10031d8:	ff d6                	call   *%esi
 10031da:	e9 3f fd ff ff       	jmp    0x1002f1e
 10031df:	ff 35 30 98 00 01    	pushl  0x1009830
 10031e5:	ff 15 64 12 00 01    	call   *0x1001264
 10031eb:	56                   	push   %esi
 10031ec:	53                   	push   %ebx
 10031ed:	6a 03                	push   $0x3
 10031ef:	50                   	push   %eax
 10031f0:	ff 15 60 12 00 01    	call   *0x1001260
 10031f6:	50                   	push   %eax
 10031f7:	ff 15 5c 12 00 01    	call   *0x100125c
 10031fd:	39 35 44 98 00 01    	cmp    %esi,0x1009844
 1003203:	0f 84 5e 01 00 00    	je     0x1003367
 1003209:	56                   	push   %esi
 100320a:	53                   	push   %ebx
 100320b:	68 11 01 00 00       	push   $0x111
 1003210:	ff b5 f0 fd ff ff    	pushl  -0x210(%ebp)
 1003216:	e9 69 fc ff ff       	jmp    0x1002e84
 100321b:	8d 85 e0 fd ff ff    	lea    -0x220(%ebp),%eax
 1003221:	50                   	push   %eax
 1003222:	ff 35 30 98 00 01    	pushl  0x1009830
 1003228:	ff 15 88 11 00 01    	call   *0x1001188
 100322e:	39 35 40 98 00 01    	cmp    %esi,0x1009840
 1003234:	74 37                	je     0x100326d
 1003236:	56                   	push   %esi
 1003237:	ff 35 34 98 00 01    	pushl  0x1009834
 100323d:	89 35 40 98 00 01    	mov    %esi,0x1009840
 1003243:	ff 15 b0 11 00 01    	call   *0x10011b0
 1003249:	8b 85 ec fd ff ff    	mov    -0x214(%ebp),%eax
 100324f:	2b 85 e4 fd ff ff    	sub    -0x21c(%ebp),%eax
 1003255:	50                   	push   %eax
 1003256:	8b 85 e8 fd ff ff    	mov    -0x218(%ebp),%eax
 100325c:	2b 85 e0 fd ff ff    	sub    -0x220(%ebp),%eax
 1003262:	50                   	push   %eax
 1003263:	e8 78 e7 ff ff       	call   0x10019e0
 1003268:	e9 fa 00 00 00       	jmp    0x1003367
 100326d:	8b 85 ec fd ff ff    	mov    -0x214(%ebp),%eax
 1003273:	2b 85 e4 fd ff ff    	sub    -0x21c(%ebp),%eax
 1003279:	33 f6                	xor    %esi,%esi
 100327b:	50                   	push   %eax
 100327c:	8b 85 e8 fd ff ff    	mov    -0x218(%ebp),%eax
 1003282:	2b 85 e0 fd ff ff    	sub    -0x220(%ebp),%eax
 1003288:	46                   	inc    %esi
 1003289:	50                   	push   %eax
 100328a:	89 35 40 98 00 01    	mov    %esi,0x1009840
 1003290:	e8 4b e7 ff ff       	call   0x10019e0
 1003295:	56                   	push   %esi
 1003296:	e8 a7 e9 ff ff       	call   0x1001c42
 100329b:	6a 05                	push   $0x5
 100329d:	ff 35 34 98 00 01    	pushl  0x1009834
 10032a3:	ff 15 b0 11 00 01    	call   *0x10011b0
 10032a9:	e9 b9 00 00 00       	jmp    0x1003367
 10032ae:	56                   	push   %esi
 10032af:	56                   	push   %esi
 10032b0:	68 e8 13 00 01       	push   $0x10013e8
 10032b5:	ff 15 e4 11 00 01    	call   *0x10011e4
 10032bb:	50                   	push   %eax
 10032bc:	e8 02 40 00 00       	call   0x10072c3
 10032c1:	e9 a1 00 00 00       	jmp    0x1003367
 10032c6:	83 ff 41             	cmp    $0x41,%edi
 10032c9:	74 76                	je     0x1003341
 10032cb:	81 ff ff 02 00 00    	cmp    $0x2ff,%edi
 10032d1:	0f 8e 2e f9 ff ff    	jle    0x1002c05
 10032d7:	81 ff 01 03 00 00    	cmp    $0x301,%edi
 10032dd:	7e 14                	jle    0x10032f3
 10032df:	81 ff 02 03 00 00    	cmp    $0x302,%edi
 10032e5:	74 39                	je     0x1003320
 10032e7:	81 ff 03 03 00 00    	cmp    $0x303,%edi
 10032ed:	0f 85 12 f9 ff ff    	jne    0x1002c05
 10032f3:	8d 85 dc fd ff ff    	lea    -0x224(%ebp),%eax
 10032f9:	50                   	push   %eax
 10032fa:	8d 85 f0 fd ff ff    	lea    -0x210(%ebp),%eax
 1003300:	50                   	push   %eax
 1003301:	68 b0 00 00 00       	push   $0xb0
 1003306:	ff 35 38 98 00 01    	pushl  0x1009838
 100330c:	ff 15 40 12 00 01    	call   *0x1001240
 1003312:	8b 85 f0 fd ff ff    	mov    -0x210(%ebp),%eax
 1003318:	3b 85 dc fd ff ff    	cmp    -0x224(%ebp),%eax
 100331e:	74 47                	je     0x1003367
 1003320:	ff 15 e8 11 00 01    	call   *0x10011e8
 1003326:	8b 0d 38 98 00 01    	mov    0x1009838,%ecx
 100332c:	3b c1                	cmp    %ecx,%eax
 100332e:	74 08                	je     0x1003338
 1003330:	3b 05 30 98 00 01    	cmp    0x1009830,%eax
 1003336:	75 2f                	jne    0x1003367
 1003338:	56                   	push   %esi
 1003339:	56                   	push   %esi
 100333a:	57                   	push   %edi
 100333b:	51                   	push   %ecx
 100333c:	e9 53 fb ff ff       	jmp    0x1002e94
 1003341:	6a 02                	push   $0x2
 1003343:	ff 35 80 ab 00 01    	pushl  0x100ab80
 1003349:	ff 15 ec 11 00 01    	call   *0x10011ec
 100334f:	50                   	push   %eax
 1003350:	68 94 13 00 01       	push   $0x1001394
 1003355:	ff 35 54 90 00 01    	pushl  0x1009054
 100335b:	ff 35 30 98 00 01    	pushl  0x1009830
 1003361:	ff 15 80 11 00 01    	call   *0x1001180
 1003367:	33 c0                	xor    %eax,%eax
 1003369:	40                   	inc    %eax
 100336a:	8b 4d fc             	mov    -0x4(%ebp),%ecx
 100336d:	5f                   	pop    %edi
 100336e:	5e                   	pop    %esi
 100336f:	5b                   	pop    %ebx
 1003370:	e8 d2 3d 00 00       	call   0x1007147
 1003375:	c9                   	leave  
 1003376:	c2 0c 00             	ret    $0xc
 1003379:	cc                   	int3   
 100337a:	cc                   	int3   
 100337b:	cc                   	int3   
 100337c:	cc                   	int3   
 100337d:	cc                   	int3   
 100337e:	8b ff                	mov    %edi,%edi
 1003380:	56                   	push   %esi
 1003381:	57                   	push   %edi
 1003382:	8b 3d 80 a4 00 01    	mov    0x100a480,%edi
 1003388:	33 f6                	xor    %esi,%esi
 100338a:	56                   	push   %esi
 100338b:	e8 7f f3 ff ff       	call   0x100270f
 1003390:	85 c0                	test   %eax,%eax
 1003392:	74 40                	je     0x10033d4
 1003394:	56                   	push   %esi
 1003395:	68 80 00 00 00       	push   $0x80
 100339a:	6a 03                	push   $0x3
 100339c:	56                   	push   %esi
 100339d:	6a 03                	push   $0x3
 100339f:	68 00 00 00 80       	push   $0x80000000
 10033a4:	be 28 96 00 01       	mov    $0x1009628,%esi
 10033a9:	56                   	push   %esi
 10033aa:	ff 15 04 11 00 01    	call   *0x1001104
 10033b0:	83 f8 ff             	cmp    $0xffffffff,%eax
 10033b3:	a3 80 a4 00 01       	mov    %eax,0x100a480
 10033b8:	75 08                	jne    0x10033c2
 10033ba:	56                   	push   %esi
 10033bb:	e8 60 1a 00 00       	call   0x1004e20
 10033c0:	eb 0c                	jmp    0x10033ce
 10033c2:	6a ff                	push   $0xffffffff
 10033c4:	56                   	push   %esi
 10033c5:	e8 af 1d 00 00       	call   0x1005179
 10033ca:	85 c0                	test   %eax,%eax
 10033cc:	75 06                	jne    0x10033d4
 10033ce:	89 3d 80 a4 00 01    	mov    %edi,0x100a480
 10033d4:	5f                   	pop    %edi
 10033d5:	5e                   	pop    %esi
 10033d6:	c3                   	ret    
 10033d7:	cc                   	int3   
 10033d8:	cc                   	int3   
 10033d9:	cc                   	int3   
 10033da:	cc                   	int3   
 10033db:	cc                   	int3   
 10033dc:	8b ff                	mov    %edi,%edi
 10033de:	55                   	push   %ebp
 10033df:	8b ec                	mov    %esp,%ebp
 10033e1:	56                   	push   %esi
 10033e2:	8b 35 78 11 00 01    	mov    0x1001178,%esi
 10033e8:	6a 00                	push   $0x0
 10033ea:	6a 00                	push   $0x0
 10033ec:	6a ff                	push   $0xffffffff
 10033ee:	ff 75 08             	pushl  0x8(%ebp)
 10033f1:	ff d6                	call   *%esi
 10033f3:	85 c0                	test   %eax,%eax
 10033f5:	74 1f                	je     0x1003416
 10033f7:	68 04 01 00 00       	push   $0x104
 10033fc:	68 28 96 00 01       	push   $0x1009628
 1003401:	6a 00                	push   $0x0
 1003403:	ff 75 08             	pushl  0x8(%ebp)
 1003406:	ff d6                	call   *%esi
 1003408:	ff 75 0c             	pushl  0xc(%ebp)
 100340b:	ff 15 9c 11 00 01    	call   *0x100119c
 1003411:	e8 68 ff ff ff       	call   0x100337e
 1003416:	ff 75 08             	pushl  0x8(%ebp)
 1003419:	ff 15 74 11 00 01    	call   *0x1001174
 100341f:	5e                   	pop    %esi
 1003420:	5d                   	pop    %ebp
 1003421:	c2 08 00             	ret    $0x8
 1003424:	cc                   	int3   
 1003425:	cc                   	int3   
 1003426:	cc                   	int3   
 1003427:	cc                   	int3   
 1003428:	cc                   	int3   
 1003429:	8b ff                	mov    %edi,%edi
 100342b:	55                   	push   %ebp
 100342c:	8b ec                	mov    %esp,%ebp
 100342e:	51                   	push   %ecx
 100342f:	51                   	push   %ecx
 1003430:	56                   	push   %esi
 1003431:	8b 75 0c             	mov    0xc(%ebp),%esi
 1003434:	83 fe 1c             	cmp    $0x1c,%esi
 1003437:	57                   	push   %edi
 1003438:	6a 08                	push   $0x8
 100343a:	5a                   	pop    %edx
 100343b:	0f 87 41 02 00 00    	ja     0x1003682
 1003441:	0f 84 b7 01 00 00    	je     0x10035fe
 1003447:	3b f2                	cmp    %edx,%esi
 1003449:	0f 87 ed 00 00 00    	ja     0x100353c
 100344f:	0f 84 db 00 00 00    	je     0x1003530
 1003455:	8b c6                	mov    %esi,%eax
 1003457:	48                   	dec    %eax
 1003458:	48                   	dec    %eax
 1003459:	0f 84 c7 00 00 00    	je     0x1003526
 100345f:	83 e8 03             	sub    $0x3,%eax
 1003462:	74 61                	je     0x10034c5
 1003464:	48                   	dec    %eax
 1003465:	74 1f                	je     0x1003486
 1003467:	48                   	dec    %eax
 1003468:	0f 85 5c 02 00 00    	jne    0x10036ca
 100346e:	ff 35 30 98 00 01    	pushl  0x1009830
 1003474:	ff 15 b8 11 00 01    	call   *0x10011b8
 100347a:	85 c0                	test   %eax,%eax
 100347c:	75 3f                	jne    0x10034bd
 100347e:	ff 35 38 98 00 01    	pushl  0x1009838
 1003484:	eb 31                	jmp    0x10034b7
 1003486:	66 83 7d 10 01       	cmpw   $0x1,0x10(%ebp)
 100348b:	74 07                	je     0x1003494
 100348d:	66 83 7d 10 02       	cmpw   $0x2,0x10(%ebp)
 1003492:	75 29                	jne    0x10034bd
 1003494:	ff 35 30 98 00 01    	pushl  0x1009830
 100349a:	ff 15 b8 11 00 01    	call   *0x10011b8
 10034a0:	85 c0                	test   %eax,%eax
 10034a2:	75 19                	jne    0x10034bd
 10034a4:	8b 35 b4 11 00 01    	mov    0x10011b4,%esi
 10034aa:	ff d6                	call   *%esi
 10034ac:	3b 05 30 98 00 01    	cmp    0x1009830,%eax
 10034b2:	75 09                	jne    0x10034bd
 10034b4:	ff d6                	call   *%esi
 10034b6:	50                   	push   %eax
 10034b7:	ff 15 78 12 00 01    	call   *0x1001278
 10034bd:	33 c0                	xor    %eax,%eax
 10034bf:	5f                   	pop    %edi
 10034c0:	5e                   	pop    %esi
 10034c1:	c9                   	leave  
 10034c2:	c2 10 00             	ret    $0x10
 10034c5:	8b 45 10             	mov    0x10(%ebp),%eax
 10034c8:	33 f6                	xor    %esi,%esi
 10034ca:	2b c6                	sub    %esi,%eax
 10034cc:	74 06                	je     0x10034d4
 10034ce:	48                   	dec    %eax
 10034cf:	74 49                	je     0x100351a
 10034d1:	48                   	dec    %eax
 10034d2:	75 e9                	jne    0x10034bd
 10034d4:	8b 3d 40 12 00 01    	mov    0x1001240,%edi
 10034da:	56                   	push   %esi
 10034db:	56                   	push   %esi
 10034dc:	6a 05                	push   $0x5
 10034de:	ff 35 34 98 00 01    	pushl  0x1009834
 10034e4:	ff d7                	call   *%edi
 10034e6:	0f bf 75 14          	movswl 0x14(%ebp),%esi
 10034ea:	6a 04                	push   $0x4
 10034ec:	59                   	pop    %ecx
 10034ed:	8d 04 76             	lea    (%esi,%esi,2),%eax
 10034f0:	99                   	cltd   
 10034f1:	f7 f9                	idiv   %ecx
 10034f3:	83 4d fc ff          	orl    $0xffffffff,-0x4(%ebp)
 10034f7:	89 45 f8             	mov    %eax,-0x8(%ebp)
 10034fa:	8d 45 f8             	lea    -0x8(%ebp),%eax
 10034fd:	50                   	push   %eax
 10034fe:	6a 02                	push   $0x2
 1003500:	68 04 04 00 00       	push   $0x404
 1003505:	ff 35 34 98 00 01    	pushl  0x1009834
 100350b:	ff d7                	call   *%edi
 100350d:	0f bf 45 16          	movswl 0x16(%ebp),%eax
 1003511:	50                   	push   %eax
 1003512:	56                   	push   %esi
 1003513:	e8 c8 e4 ff ff       	call   0x10019e0
 1003518:	eb a3                	jmp    0x10034bd
 100351a:	ff 75 14             	pushl  0x14(%ebp)
 100351d:	6a 01                	push   $0x1
 100351f:	6a 05                	push   $0x5
 1003521:	e9 ad 02 00 00       	jmp    0x10037d3
 1003526:	6a 00                	push   $0x0
 1003528:	ff 15 f4 11 00 01    	call   *0x10011f4
 100352e:	eb 8d                	jmp    0x10034bd
 1003530:	ff 75 14             	pushl  0x14(%ebp)
 1003533:	ff 75 10             	pushl  0x10(%ebp)
 1003536:	52                   	push   %edx
 1003537:	e9 c1 02 00 00       	jmp    0x10037fd
 100353c:	8b c6                	mov    %esi,%eax
 100353e:	83 e8 10             	sub    $0x10,%eax
 1003541:	74 49                	je     0x100358c
 1003543:	48                   	dec    %eax
 1003544:	74 0e                	je     0x1003554
 1003546:	83 e8 09             	sub    $0x9,%eax
 1003549:	0f 84 6e ff ff ff    	je     0x10034bd
 100354f:	e9 76 01 00 00       	jmp    0x10036ca
 1003554:	33 f6                	xor    %esi,%esi
 1003556:	39 35 54 98 00 01    	cmp    %esi,0x1009854
 100355c:	74 22                	je     0x1003580
 100355e:	8b 3d ac 11 00 01    	mov    0x10011ac,%edi
 1003564:	56                   	push   %esi
 1003565:	ff d7                	call   *%edi
 1003567:	56                   	push   %esi
 1003568:	ff d7                	call   *%edi
 100356a:	68 00 10 00 00       	push   $0x1000
 100356f:	ff 35 54 90 00 01    	pushl  0x1009054
 1003575:	ff 35 94 90 00 01    	pushl  0x1009094
 100357b:	e9 8a 03 00 00       	jmp    0x100390a
 1003580:	6a 01                	push   $0x1
 1003582:	e8 88 f1 ff ff       	call   0x100270f
 1003587:	e9 33 ff ff ff       	jmp    0x10034bf
 100358c:	e8 a8 04 00 00       	call   0x1003a39
 1003591:	33 f6                	xor    %esi,%esi
 1003593:	56                   	push   %esi
 1003594:	e8 76 f1 ff ff       	call   0x100270f
 1003599:	85 c0                	test   %eax,%eax
 100359b:	0f 84 1c ff ff ff    	je     0x10034bd
 10035a1:	56                   	push   %esi
 10035a2:	6a 02                	push   $0x2
 10035a4:	ff 35 74 90 00 01    	pushl  0x1009074
 10035aa:	ff 35 30 98 00 01    	pushl  0x1009830
 10035b0:	ff 15 28 12 00 01    	call   *0x1001228
 10035b6:	85 c0                	test   %eax,%eax
 10035b8:	75 1d                	jne    0x10035d7
 10035ba:	68 10 10 00 00       	push   $0x1010
 10035bf:	ff 35 54 90 00 01    	pushl  0x1009054
 10035c5:	ff 35 4c 90 00 01    	pushl  0x100904c
 10035cb:	ff 35 30 98 00 01    	pushl  0x1009830
 10035d1:	ff 15 68 12 00 01    	call   *0x1001268
 10035d7:	ff 35 34 98 00 01    	pushl  0x1009834
 10035dd:	8b 35 a8 11 00 01    	mov    0x10011a8,%esi
 10035e3:	ff d6                	call   *%esi
 10035e5:	ff 35 30 98 00 01    	pushl  0x1009830
 10035eb:	ff d6                	call   *%esi
 10035ed:	ff 35 7c ab 00 01    	pushl  0x100ab7c
 10035f3:	ff 15 68 10 00 01    	call   *0x1001068
 10035f9:	e9 bf fe ff ff       	jmp    0x10034bd
 10035fe:	33 f6                	xor    %esi,%esi
 1003600:	39 75 10             	cmp    %esi,0x10(%ebp)
 1003603:	74 40                	je     0x1003645
 1003605:	a1 5c 98 00 01       	mov    0x100985c,%eax
 100360a:	3b c6                	cmp    %esi,%eax
 100360c:	8b 0d 60 98 00 01    	mov    0x1009860,%ecx
 1003612:	75 08                	jne    0x100361c
 1003614:	3b ce                	cmp    %esi,%ecx
 1003616:	0f 84 a1 fe ff ff    	je     0x10034bd
 100361c:	8b 3d 40 12 00 01    	mov    0x1001240,%edi
 1003622:	51                   	push   %ecx
 1003623:	50                   	push   %eax
 1003624:	68 b1 00 00 00       	push   $0xb1
 1003629:	ff 35 38 98 00 01    	pushl  0x1009838
 100362f:	ff d7                	call   *%edi
 1003631:	56                   	push   %esi
 1003632:	56                   	push   %esi
 1003633:	68 b7 00 00 00       	push   $0xb7
 1003638:	ff 35 38 98 00 01    	pushl  0x1009838
 100363e:	ff d7                	call   *%edi
 1003640:	e9 78 fe ff ff       	jmp    0x10034bd
 1003645:	8b 3d 40 12 00 01    	mov    0x1001240,%edi
 100364b:	68 60 98 00 01       	push   $0x1009860
 1003650:	68 5c 98 00 01       	push   $0x100985c
 1003655:	68 b0 00 00 00       	push   $0xb0
 100365a:	ff 35 38 98 00 01    	pushl  0x1009838
 1003660:	ff d7                	call   *%edi
 1003662:	a1 5c 98 00 01       	mov    0x100985c,%eax
 1003667:	8b 0d 60 98 00 01    	mov    0x1009860,%ecx
 100366d:	3b c1                	cmp    %ecx,%eax
 100366f:	75 b1                	jne    0x1003622
 1003671:	89 35 5c 98 00 01    	mov    %esi,0x100985c
 1003677:	89 35 60 98 00 01    	mov    %esi,0x1009860
 100367d:	e9 3b fe ff ff       	jmp    0x10034bd
 1003682:	8b 7d 14             	mov    0x14(%ebp),%edi
 1003685:	8b c6                	mov    %esi,%eax
 1003687:	2d 11 01 00 00       	sub    $0x111,%eax
 100368c:	0f 84 35 02 00 00    	je     0x10038c7
 1003692:	48                   	dec    %eax
 1003693:	0f 84 ea 01 00 00    	je     0x1003883
 1003699:	83 e8 04             	sub    $0x4,%eax
 100369c:	0f 84 d4 01 00 00    	je     0x1003876
 10036a2:	48                   	dec    %eax
 10036a3:	0f 84 99 01 00 00    	je     0x1003842
 10036a9:	2d 1c 01 00 00       	sub    $0x11c,%eax
 10036ae:	0f 84 7e 01 00 00    	je     0x1003832
 10036b4:	2d e6 00 00 00       	sub    $0xe6,%eax
 10036b9:	0f 84 4f 01 00 00    	je     0x100380e
 10036bf:	2d e8 7c 00 00       	sub    $0x7ce8,%eax
 10036c4:	0f 84 17 01 00 00    	je     0x10037e1
 10036ca:	3b 35 88 a4 00 01    	cmp    0x100a488,%esi
 10036d0:	0f 85 f6 00 00 00    	jne    0x10037cc
 10036d6:	8b 45 14             	mov    0x14(%ebp),%eax
 10036d9:	8b 48 0c             	mov    0xc(%eax),%ecx
 10036dc:	8b c1                	mov    %ecx,%eax
 10036de:	8b f1                	mov    %ecx,%esi
 10036e0:	c1 ee 02             	shr    $0x2,%esi
 10036e3:	f7 d0                	not    %eax
 10036e5:	83 e0 01             	and    $0x1,%eax
 10036e8:	83 e6 01             	and    $0x1,%esi
 10036eb:	84 ca                	test   %cl,%dl
 10036ed:	a3 94 9a 00 01       	mov    %eax,0x1009a94
 10036f2:	89 35 90 9a 00 01    	mov    %esi,0x1009a90
 10036f8:	74 10                	je     0x100370a
 10036fa:	ff 35 84 ab 00 01    	pushl  0x100ab84
 1003700:	8b 35 8c 11 00 01    	mov    0x100118c,%esi
 1003706:	ff d6                	call   *%esi
 1003708:	eb 1a                	jmp    0x1003724
 100370a:	f6 c1 10             	test   $0x10,%cl
 100370d:	74 2c                	je     0x100373b
 100370f:	ff 35 84 ab 00 01    	pushl  0x100ab84
 1003715:	8b 35 8c 11 00 01    	mov    0x100118c,%esi
 100371b:	ff d6                	call   *%esi
 100371d:	6a 01                	push   $0x1
 100371f:	e8 5b e9 ff ff       	call   0x100207f
 1003724:	68 00 a8 00 01       	push   $0x100a800
 1003729:	e8 1e 22 00 00       	call   0x100594c
 100372e:	ff 35 88 ab 00 01    	pushl  0x100ab88
 1003734:	ff d6                	call   *%esi
 1003736:	e9 82 fd ff ff       	jmp    0x10034bd
 100373b:	f6 c1 20             	test   $0x20,%cl
 100373e:	74 77                	je     0x10037b7
 1003740:	33 f6                	xor    %esi,%esi
 1003742:	3b c6                	cmp    %esi,%eax
 1003744:	74 06                	je     0x100374c
 1003746:	89 35 94 9a 00 01    	mov    %esi,0x1009a94
 100374c:	53                   	push   %ebx
 100374d:	ff 35 84 ab 00 01    	pushl  0x100ab84
 1003753:	8b 1d 8c 11 00 01    	mov    0x100118c,%ebx
 1003759:	ff d3                	call   *%ebx
 100375b:	8b 3d 40 12 00 01    	mov    0x1001240,%edi
 1003761:	56                   	push   %esi
 1003762:	56                   	push   %esi
 1003763:	68 b1 00 00 00       	push   $0xb1
 1003768:	ff 35 38 98 00 01    	pushl  0x1009838
 100376e:	ff d7                	call   *%edi
 1003770:	56                   	push   %esi
 1003771:	e8 09 e9 ff ff       	call   0x100207f
 1003776:	68 00 a8 00 01       	push   $0x100a800
 100377b:	e8 cc 21 00 00       	call   0x100594c
 1003780:	85 c0                	test   %eax,%eax
 1003782:	75 ec                	jne    0x1003770
 1003784:	ff 35 88 ab 00 01    	pushl  0x100ab88
 100378a:	ff d3                	call   *%ebx
 100378c:	56                   	push   %esi
 100378d:	56                   	push   %esi
 100378e:	68 b1 00 00 00       	push   $0xb1
 1003793:	ff 35 38 98 00 01    	pushl  0x1009838
 1003799:	ff d7                	call   *%edi
 100379b:	56                   	push   %esi
 100379c:	56                   	push   %esi
 100379d:	68 b7 00 00 00       	push   $0xb7
 10037a2:	ff 35 38 98 00 01    	pushl  0x1009838
 10037a8:	ff d7                	call   *%edi
 10037aa:	6a 01                	push   $0x1
 10037ac:	e8 91 e4 ff ff       	call   0x1001c42
 10037b1:	5b                   	pop    %ebx
 10037b2:	e9 06 fd ff ff       	jmp    0x10034bd
 10037b7:	f6 c1 40             	test   $0x40,%cl
 10037ba:	0f 84 fd fc ff ff    	je     0x10034bd
 10037c0:	83 25 3c 98 00 01 00 	andl   $0x0,0x100983c
 10037c7:	e9 f1 fc ff ff       	jmp    0x10034bd
 10037cc:	ff 75 14             	pushl  0x14(%ebp)
 10037cf:	ff 75 10             	pushl  0x10(%ebp)
 10037d2:	56                   	push   %esi
 10037d3:	ff 75 08             	pushl  0x8(%ebp)
 10037d6:	ff 15 a4 11 00 01    	call   *0x10011a4
 10037dc:	e9 de fc ff ff       	jmp    0x10034bf
 10037e1:	33 f6                	xor    %esi,%esi
 10037e3:	56                   	push   %esi
 10037e4:	ff 15 a0 11 00 01    	call   *0x10011a0
 10037ea:	66 25 ff 03          	and    $0x3ff,%ax
 10037ee:	66 3d 11 00          	cmp    $0x11,%ax
 10037f2:	75 01                	jne    0x10037f5
 10037f4:	46                   	inc    %esi
 10037f5:	56                   	push   %esi
 10037f6:	6a 01                	push   $0x1
 10037f8:	68 d8 00 00 00       	push   $0xd8
 10037fd:	ff 35 38 98 00 01    	pushl  0x1009838
 1003803:	ff 15 40 12 00 01    	call   *0x1001240
 1003809:	e9 af fc ff ff       	jmp    0x10034bd
 100380e:	8b c7                	mov    %edi,%eax
 1003810:	c1 e8 10             	shr    $0x10,%eax
 1003813:	66 25 ff 0f          	and    $0xfff,%ax
 1003817:	66 3d 05 00          	cmp    $0x5,%ax
 100381b:	0f 85 a6 00 00 00    	jne    0x10038c7
 1003821:	6a 00                	push   $0x0
 1003823:	6a 15                	push   $0x15
 1003825:	ff 75 08             	pushl  0x8(%ebp)
 1003828:	e8 5a f3 ff ff       	call   0x1002b87
 100382d:	e9 8b fc ff ff       	jmp    0x10034bd
 1003832:	ff 75 08             	pushl  0x8(%ebp)
 1003835:	ff 75 10             	pushl  0x10(%ebp)
 1003838:	e8 9f fb ff ff       	call   0x10033dc
 100383d:	e9 7b fc ff ff       	jmp    0x10034bd
 1003842:	83 3d 4c 98 00 01 00 	cmpl   $0x0,0x100984c
 1003849:	0f 84 6e fc ff ff    	je     0x10034bd
 100384f:	8b 45 14             	mov    0x14(%ebp),%eax
 1003852:	c1 e8 10             	shr    $0x10,%eax
 1003855:	66 85 c0             	test   %ax,%ax
 1003858:	0f 84 5f fc ff ff    	je     0x10034bd
 100385e:	6a 03                	push   $0x3
 1003860:	68 20 f0 00 00       	push   $0xf020
 1003865:	ff 35 dc a6 00 01    	pushl  0x100a6dc
 100386b:	ff 15 5c 12 00 01    	call   *0x100125c
 1003871:	e9 47 fc ff ff       	jmp    0x10034bd
 1003876:	ff 75 08             	pushl  0x8(%ebp)
 1003879:	e8 f5 e4 ff ff       	call   0x1001d73
 100387e:	e9 3a fc ff ff       	jmp    0x10034bd
 1003883:	83 3d 4c 98 00 01 00 	cmpl   $0x0,0x100984c
 100388a:	8b 45 10             	mov    0x10(%ebp),%eax
 100388d:	74 21                	je     0x10038b0
 100388f:	3d 20 f0 00 00       	cmp    $0xf020,%eax
 1003894:	0f 84 23 fc ff ff    	je     0x10034bd
 100389a:	3d 40 f0 00 00       	cmp    $0xf040,%eax
 100389f:	0f 84 18 fc ff ff    	je     0x10034bd
 10038a5:	3d 50 f0 00 00       	cmp    $0xf050,%eax
 10038aa:	0f 84 0d fc ff ff    	je     0x10034bd
 10038b0:	ff 75 14             	pushl  0x14(%ebp)
 10038b3:	50                   	push   %eax
 10038b4:	68 12 01 00 00       	push   $0x112
 10038b9:	ff 75 08             	pushl  0x8(%ebp)
 10038bc:	ff 15 a4 11 00 01    	call   *0x10011a4
 10038c2:	e9 f6 fb ff ff       	jmp    0x10034bd
 10038c7:	3b 3d 38 98 00 01    	cmp    0x1009838,%edi
 10038cd:	75 4c                	jne    0x100391b
 10038cf:	8b 45 10             	mov    0x10(%ebp),%eax
 10038d2:	c1 e8 10             	shr    $0x10,%eax
 10038d5:	66 3d 00 05          	cmp    $0x500,%ax
 10038d9:	74 06                	je     0x10038e1
 10038db:	66 3d 01 05          	cmp    $0x501,%ax
 10038df:	75 3a                	jne    0x100391b
 10038e1:	83 3d 48 98 00 01 01 	cmpl   $0x1,0x1009848
 10038e8:	75 0f                	jne    0x10038f9
 10038ea:	c7 05 48 98 00 01 02 	movl   $0x2,0x1009848
 10038f1:	00 00 00 
 10038f4:	e9 c4 fb ff ff       	jmp    0x10034bd
 10038f9:	68 10 10 00 00       	push   $0x1010
 10038fe:	ff 35 54 90 00 01    	pushl  0x1009054
 1003904:	ff 35 4c 90 00 01    	pushl  0x100904c
 100390a:	ff 35 30 98 00 01    	pushl  0x1009830
 1003910:	ff 15 68 12 00 01    	call   *0x1001268
 1003916:	e9 a2 fb ff ff       	jmp    0x10034bd
 100391b:	57                   	push   %edi
 100391c:	ff 75 10             	pushl  0x10(%ebp)
 100391f:	ff 75 08             	pushl  0x8(%ebp)
 1003922:	e8 60 f2 ff ff       	call   0x1002b87
 1003927:	85 c0                	test   %eax,%eax
 1003929:	0f 85 8e fb ff ff    	jne    0x10034bd
 100392f:	57                   	push   %edi
 1003930:	e9 9a fe ff ff       	jmp    0x10037cf
 1003935:	cc                   	int3   
 1003936:	cc                   	int3   
 1003937:	cc                   	int3   
 1003938:	cc                   	int3   
 1003939:	cc                   	int3   
 100393a:	8b ff                	mov    %edi,%edi
 100393c:	55                   	push   %ebp
 100393d:	8b ec                	mov    %esp,%ebp
 100393f:	6a 04                	push   $0x4
 1003941:	8d 45 10             	lea    0x10(%ebp),%eax
 1003944:	50                   	push   %eax
 1003945:	6a 04                	push   $0x4
 1003947:	6a 00                	push   $0x0
 1003949:	ff 75 0c             	pushl  0xc(%ebp)
 100394c:	ff 75 08             	pushl  0x8(%ebp)
 100394f:	ff 15 18 10 00 01    	call   *0x1001018
 1003955:	5d                   	pop    %ebp
 1003956:	c2 0c 00             	ret    $0xc
 1003959:	cc                   	int3   
 100395a:	cc                   	int3   
 100395b:	cc                   	int3   
 100395c:	cc                   	int3   
 100395d:	cc                   	int3   
 100395e:	8b ff                	mov    %edi,%edi
 1003960:	55                   	push   %ebp
 1003961:	8b ec                	mov    %esp,%ebp
 1003963:	ff 75 10             	pushl  0x10(%ebp)
 1003966:	ff 15 e4 10 00 01    	call   *0x10010e4
 100396c:	8d 44 00 02          	lea    0x2(%eax,%eax,1),%eax
 1003970:	50                   	push   %eax
 1003971:	ff 75 10             	pushl  0x10(%ebp)
 1003974:	6a 01                	push   $0x1
 1003976:	6a 00                	push   $0x0
 1003978:	ff 75 0c             	pushl  0xc(%ebp)
 100397b:	ff 75 08             	pushl  0x8(%ebp)
 100397e:	ff 15 18 10 00 01    	call   *0x1001018
 1003984:	5d                   	pop    %ebp
 1003985:	c2 0c 00             	ret    $0xc
 1003988:	cc                   	int3   
 1003989:	cc                   	int3   
 100398a:	cc                   	int3   
 100398b:	cc                   	int3   
 100398c:	cc                   	int3   
 100398d:	8b ff                	mov    %edi,%edi
 100398f:	55                   	push   %ebp
 1003990:	8b ec                	mov    %esp,%ebp
 1003992:	83 ec 0c             	sub    $0xc,%esp
 1003995:	83 65 fc 00          	andl   $0x0,-0x4(%ebp)
 1003999:	83 7d 08 00          	cmpl   $0x0,0x8(%ebp)
 100399d:	c7 45 f8 01 00 00 00 	movl   $0x1,-0x8(%ebp)
 10039a4:	c7 45 f4 04 00 00 00 	movl   $0x4,-0xc(%ebp)
 10039ab:	74 24                	je     0x10039d1
 10039ad:	8d 45 f4             	lea    -0xc(%ebp),%eax
 10039b0:	50                   	push   %eax
 10039b1:	8d 45 f8             	lea    -0x8(%ebp),%eax
 10039b4:	50                   	push   %eax
 10039b5:	8d 45 fc             	lea    -0x4(%ebp),%eax
 10039b8:	50                   	push   %eax
 10039b9:	6a 00                	push   $0x0
 10039bb:	ff 75 0c             	pushl  0xc(%ebp)
 10039be:	ff 75 08             	pushl  0x8(%ebp)
 10039c1:	ff 15 00 10 00 01    	call   *0x1001000
 10039c7:	85 c0                	test   %eax,%eax
 10039c9:	75 06                	jne    0x10039d1
 10039cb:	83 7d fc 04          	cmpl   $0x4,-0x4(%ebp)
 10039cf:	74 05                	je     0x10039d6
 10039d1:	8b 45 10             	mov    0x10(%ebp),%eax
 10039d4:	eb 03                	jmp    0x10039d9
 10039d6:	8b 45 f8             	mov    -0x8(%ebp),%eax
 10039d9:	c9                   	leave  
 10039da:	c2 0c 00             	ret    $0xc
 10039dd:	cc                   	int3   
 10039de:	cc                   	int3   
 10039df:	cc                   	int3   
 10039e0:	cc                   	int3   
 10039e1:	cc                   	int3   
 10039e2:	8b ff                	mov    %edi,%edi
 10039e4:	55                   	push   %ebp
 10039e5:	8b ec                	mov    %esp,%ebp
 10039e7:	56                   	push   %esi
 10039e8:	8b 75 18             	mov    0x18(%ebp),%esi
 10039eb:	03 f6                	add    %esi,%esi
 10039ed:	83 7d 08 00          	cmpl   $0x0,0x8(%ebp)
 10039f1:	57                   	push   %edi
 10039f2:	8b 7d 14             	mov    0x14(%ebp),%edi
 10039f5:	89 75 18             	mov    %esi,0x18(%ebp)
 10039f8:	74 21                	je     0x1003a1b
 10039fa:	8d 45 18             	lea    0x18(%ebp),%eax
 10039fd:	50                   	push   %eax
 10039fe:	57                   	push   %edi
 10039ff:	8d 45 08             	lea    0x8(%ebp),%eax
 1003a02:	50                   	push   %eax
 1003a03:	6a 00                	push   $0x0
 1003a05:	ff 75 0c             	pushl  0xc(%ebp)
 1003a08:	ff 75 08             	pushl  0x8(%ebp)
 1003a0b:	ff 15 00 10 00 01    	call   *0x1001000
 1003a11:	85 c0                	test   %eax,%eax
 1003a13:	75 06                	jne    0x1003a1b
 1003a15:	83 7d 08 01          	cmpl   $0x1,0x8(%ebp)
 1003a19:	74 13                	je     0x1003a2e
 1003a1b:	8b ce                	mov    %esi,%ecx
 1003a1d:	8b 75 10             	mov    0x10(%ebp),%esi
 1003a20:	8b c1                	mov    %ecx,%eax
 1003a22:	c1 e9 02             	shr    $0x2,%ecx
 1003a25:	f3 a5                	rep movsl %ds:(%esi),%es:(%edi)
 1003a27:	8b c8                	mov    %eax,%ecx
 1003a29:	83 e1 03             	and    $0x3,%ecx
 1003a2c:	f3 a4                	rep movsb %ds:(%esi),%es:(%edi)
 1003a2e:	5f                   	pop    %edi
 1003a2f:	5e                   	pop    %esi
 1003a30:	5d                   	pop    %ebp
 1003a31:	c2 14 00             	ret    $0x14
 1003a34:	cc                   	int3   
 1003a35:	cc                   	int3   
 1003a36:	cc                   	int3   
 1003a37:	cc                   	int3   
 1003a38:	cc                   	int3   
 1003a39:	8b ff                	mov    %edi,%edi
 1003a3b:	55                   	push   %ebp
 1003a3c:	8b ec                	mov    %esp,%ebp
 1003a3e:	83 ec 30             	sub    $0x30,%esp
 1003a41:	8d 45 fc             	lea    -0x4(%ebp),%eax
 1003a44:	50                   	push   %eax
 1003a45:	68 a4 16 00 01       	push   $0x10016a4
 1003a4a:	68 01 00 00 80       	push   $0x80000001
 1003a4f:	ff 15 08 10 00 01    	call   *0x1001008
 1003a55:	85 c0                	test   %eax,%eax
 1003a57:	0f 85 2e 02 00 00    	jne    0x1003c8b
 1003a5d:	ff 35 28 ab 00 01    	pushl  0x100ab28
 1003a63:	68 88 16 00 01       	push   $0x1001688
 1003a68:	ff 75 fc             	pushl  -0x4(%ebp)
 1003a6b:	e8 ca fe ff ff       	call   0x100393a
 1003a70:	ff 35 2c ab 00 01    	pushl  0x100ab2c
 1003a76:	68 6c 16 00 01       	push   $0x100166c
 1003a7b:	ff 75 fc             	pushl  -0x4(%ebp)
 1003a7e:	e8 b7 fe ff ff       	call   0x100393a
 1003a83:	ff 35 30 ab 00 01    	pushl  0x100ab30
 1003a89:	68 58 16 00 01       	push   $0x1001658
 1003a8e:	ff 75 fc             	pushl  -0x4(%ebp)
 1003a91:	e8 a4 fe ff ff       	call   0x100393a
 1003a96:	0f b6 05 34 ab 00 01 	movzbl 0x100ab34,%eax
 1003a9d:	50                   	push   %eax
 1003a9e:	68 44 16 00 01       	push   $0x1001644
 1003aa3:	ff 75 fc             	pushl  -0x4(%ebp)
 1003aa6:	e8 8f fe ff ff       	call   0x100393a
 1003aab:	0f b6 05 35 ab 00 01 	movzbl 0x100ab35,%eax
 1003ab2:	50                   	push   %eax
 1003ab3:	68 2c 16 00 01       	push   $0x100162c
 1003ab8:	ff 75 fc             	pushl  -0x4(%ebp)
 1003abb:	e8 7a fe ff ff       	call   0x100393a
 1003ac0:	0f b6 05 36 ab 00 01 	movzbl 0x100ab36,%eax
 1003ac7:	50                   	push   %eax
 1003ac8:	68 14 16 00 01       	push   $0x1001614
 1003acd:	ff 75 fc             	pushl  -0x4(%ebp)
 1003ad0:	e8 65 fe ff ff       	call   0x100393a
 1003ad5:	0f b6 05 37 ab 00 01 	movzbl 0x100ab37,%eax
 1003adc:	50                   	push   %eax
 1003add:	68 00 16 00 01       	push   $0x1001600
 1003ae2:	ff 75 fc             	pushl  -0x4(%ebp)
 1003ae5:	e8 50 fe ff ff       	call   0x100393a
 1003aea:	0f b6 05 38 ab 00 01 	movzbl 0x100ab38,%eax
 1003af1:	50                   	push   %eax
 1003af2:	68 e0 15 00 01       	push   $0x10015e0
 1003af7:	ff 75 fc             	pushl  -0x4(%ebp)
 1003afa:	e8 3b fe ff ff       	call   0x100393a
 1003aff:	0f b6 05 39 ab 00 01 	movzbl 0x100ab39,%eax
 1003b06:	50                   	push   %eax
 1003b07:	68 c0 15 00 01       	push   $0x10015c0
 1003b0c:	ff 75 fc             	pushl  -0x4(%ebp)
 1003b0f:	e8 26 fe ff ff       	call   0x100393a
 1003b14:	0f b6 05 3a ab 00 01 	movzbl 0x100ab3a,%eax
 1003b1b:	50                   	push   %eax
 1003b1c:	68 ac 15 00 01       	push   $0x10015ac
 1003b21:	ff 75 fc             	pushl  -0x4(%ebp)
 1003b24:	e8 11 fe ff ff       	call   0x100393a
 1003b29:	0f b6 05 3b ab 00 01 	movzbl 0x100ab3b,%eax
 1003b30:	50                   	push   %eax
 1003b31:	68 88 15 00 01       	push   $0x1001588
 1003b36:	ff 75 fc             	pushl  -0x4(%ebp)
 1003b39:	e8 fc fd ff ff       	call   0x100393a
 1003b3e:	ff 35 18 90 00 01    	pushl  0x1009018
 1003b44:	68 70 15 00 01       	push   $0x1001570
 1003b49:	ff 75 fc             	pushl  -0x4(%ebp)
 1003b4c:	e8 e9 fd ff ff       	call   0x100393a
 1003b51:	ff 35 50 98 00 01    	pushl  0x1009850
 1003b57:	68 64 15 00 01       	push   $0x1001564
 1003b5c:	ff 75 fc             	pushl  -0x4(%ebp)
 1003b5f:	e8 d6 fd ff ff       	call   0x100393a
 1003b64:	ff 35 40 98 00 01    	pushl  0x1009840
 1003b6a:	68 50 15 00 01       	push   $0x1001550
 1003b6f:	ff 75 fc             	pushl  -0x4(%ebp)
 1003b72:	e8 c3 fd ff ff       	call   0x100393a
 1003b77:	ff 35 84 9a 00 01    	pushl  0x1009a84
 1003b7d:	68 24 15 00 01       	push   $0x1001524
 1003b82:	ff 75 fc             	pushl  -0x4(%ebp)
 1003b85:	e8 b0 fd ff ff       	call   0x100393a
 1003b8a:	68 3c ab 00 01       	push   $0x100ab3c
 1003b8f:	68 0c 15 00 01       	push   $0x100150c
 1003b94:	ff 75 fc             	pushl  -0x4(%ebp)
 1003b97:	e8 c2 fd ff ff       	call   0x100395e
 1003b9c:	68 e0 a3 00 01       	push   $0x100a3e0
 1003ba1:	68 f8 14 00 01       	push   $0x10014f8
 1003ba6:	ff 75 fc             	pushl  -0x4(%ebp)
 1003ba9:	e8 b0 fd ff ff       	call   0x100395e
 1003bae:	68 30 a4 00 01       	push   $0x100a430
 1003bb3:	68 e4 14 00 01       	push   $0x10014e4
 1003bb8:	ff 75 fc             	pushl  -0x4(%ebp)
 1003bbb:	e8 9e fd ff ff       	call   0x100395e
 1003bc0:	ff 35 d0 a4 00 01    	pushl  0x100a4d0
 1003bc6:	68 cc 14 00 01       	push   $0x10014cc
 1003bcb:	ff 75 fc             	pushl  -0x4(%ebp)
 1003bce:	e8 67 fd ff ff       	call   0x100393a
 1003bd3:	ff 35 d8 a4 00 01    	pushl  0x100a4d8
 1003bd9:	68 b0 14 00 01       	push   $0x10014b0
 1003bde:	ff 75 fc             	pushl  -0x4(%ebp)
 1003be1:	e8 54 fd ff ff       	call   0x100393a
 1003be6:	ff 35 cc a4 00 01    	pushl  0x100a4cc
 1003bec:	68 98 14 00 01       	push   $0x1001498
 1003bf1:	ff 75 fc             	pushl  -0x4(%ebp)
 1003bf4:	e8 41 fd ff ff       	call   0x100393a
 1003bf9:	ff 35 d4 a4 00 01    	pushl  0x100a4d4
 1003bff:	68 7c 14 00 01       	push   $0x100147c
 1003c04:	ff 75 fc             	pushl  -0x4(%ebp)
 1003c07:	e8 2e fd ff ff       	call   0x100393a
 1003c0c:	ff 35 58 98 00 01    	pushl  0x1009858
 1003c12:	68 5c 14 00 01       	push   $0x100145c
 1003c17:	ff 75 fc             	pushl  -0x4(%ebp)
 1003c1a:	e8 1b fd ff ff       	call   0x100393a
 1003c1f:	8d 45 d0             	lea    -0x30(%ebp),%eax
 1003c22:	50                   	push   %eax
 1003c23:	ff 35 30 98 00 01    	pushl  0x1009830
 1003c29:	c7 45 d0 2c 00 00 00 	movl   $0x2c,-0x30(%ebp)
 1003c30:	ff 15 bc 11 00 01    	call   *0x10011bc
 1003c36:	85 c0                	test   %eax,%eax
 1003c38:	74 48                	je     0x1003c82
 1003c3a:	ff 75 ec             	pushl  -0x14(%ebp)
 1003c3d:	68 44 14 00 01       	push   $0x1001444
 1003c42:	ff 75 fc             	pushl  -0x4(%ebp)
 1003c45:	e8 f0 fc ff ff       	call   0x100393a
 1003c4a:	ff 75 f0             	pushl  -0x10(%ebp)
 1003c4d:	68 2c 14 00 01       	push   $0x100142c
 1003c52:	ff 75 fc             	pushl  -0x4(%ebp)
 1003c55:	e8 e0 fc ff ff       	call   0x100393a
 1003c5a:	8b 45 f4             	mov    -0xc(%ebp),%eax
 1003c5d:	2b 45 ec             	sub    -0x14(%ebp),%eax
 1003c60:	50                   	push   %eax
 1003c61:	68 10 14 00 01       	push   $0x1001410
 1003c66:	ff 75 fc             	pushl  -0x4(%ebp)
 1003c69:	e8 cc fc ff ff       	call   0x100393a
 1003c6e:	8b 45 f8             	mov    -0x8(%ebp),%eax
 1003c71:	2b 45 f0             	sub    -0x10(%ebp),%eax
 1003c74:	50                   	push   %eax
 1003c75:	68 f4 13 00 01       	push   $0x10013f4
 1003c7a:	ff 75 fc             	pushl  -0x4(%ebp)
 1003c7d:	e8 b8 fc ff ff       	call   0x100393a
 1003c82:	ff 75 fc             	pushl  -0x4(%ebp)
 1003c85:	ff 15 04 10 00 01    	call   *0x1001004
 1003c8b:	c9                   	leave  
 1003c8c:	c3                   	ret    
 1003c8d:	cc                   	int3   
 1003c8e:	cc                   	int3   
 1003c8f:	cc                   	int3   
 1003c90:	cc                   	int3   
 1003c91:	cc                   	int3   
 1003c92:	8b ff                	mov    %edi,%edi
 1003c94:	55                   	push   %ebp
 1003c95:	8b ec                	mov    %esp,%ebp
 1003c97:	83 ec 64             	sub    $0x64,%esp
 1003c9a:	a1 04 96 00 01       	mov    0x1009604,%eax
 1003c9f:	56                   	push   %esi
 1003ca0:	57                   	push   %edi
 1003ca1:	6a 10                	push   $0x10
 1003ca3:	89 45 fc             	mov    %eax,-0x4(%ebp)
 1003ca6:	ff 15 58 10 00 01    	call   *0x1001058
 1003cac:	33 ff                	xor    %edi,%edi
 1003cae:	3b c7                	cmp    %edi,%eax
 1003cb0:	74 0d                	je     0x1003cbf
 1003cb2:	8d 4d a0             	lea    -0x60(%ebp),%ecx
 1003cb5:	51                   	push   %ecx
 1003cb6:	6a 5c                	push   $0x5c
 1003cb8:	50                   	push   %eax
 1003cb9:	ff 15 5c 10 00 01    	call   *0x100105c
 1003cbf:	8d 45 9c             	lea    -0x64(%ebp),%eax
 1003cc2:	50                   	push   %eax
 1003cc3:	68 a4 16 00 01       	push   $0x10016a4
 1003cc8:	68 01 00 00 80       	push   $0x80000001
 1003ccd:	ff 15 08 10 00 01    	call   *0x1001008
 1003cd3:	85 c0                	test   %eax,%eax
 1003cd5:	74 03                	je     0x1003cda
 1003cd7:	89 7d 9c             	mov    %edi,-0x64(%ebp)
 1003cda:	ff 75 a8             	pushl  -0x58(%ebp)
 1003cdd:	89 3d 24 ab 00 01    	mov    %edi,0x100ab24
 1003ce3:	68 88 16 00 01       	push   $0x1001688
 1003ce8:	ff 75 9c             	pushl  -0x64(%ebp)
 1003ceb:	e8 9d fc ff ff       	call   0x100398d
 1003cf0:	ff 75 ac             	pushl  -0x54(%ebp)
 1003cf3:	a3 28 ab 00 01       	mov    %eax,0x100ab28
 1003cf8:	68 6c 16 00 01       	push   $0x100166c
 1003cfd:	ff 75 9c             	pushl  -0x64(%ebp)
 1003d00:	e8 88 fc ff ff       	call   0x100398d
 1003d05:	ff 75 b0             	pushl  -0x50(%ebp)
 1003d08:	a3 2c ab 00 01       	mov    %eax,0x100ab2c
 1003d0d:	68 58 16 00 01       	push   $0x1001658
 1003d12:	ff 75 9c             	pushl  -0x64(%ebp)
 1003d15:	e8 73 fc ff ff       	call   0x100398d
 1003d1a:	a3 30 ab 00 01       	mov    %eax,0x100ab30
 1003d1f:	0f b6 45 b4          	movzbl -0x4c(%ebp),%eax
 1003d23:	50                   	push   %eax
 1003d24:	68 44 16 00 01       	push   $0x1001644
 1003d29:	ff 75 9c             	pushl  -0x64(%ebp)
 1003d2c:	e8 5c fc ff ff       	call   0x100398d
 1003d31:	a2 34 ab 00 01       	mov    %al,0x100ab34
 1003d36:	0f b6 45 b5          	movzbl -0x4b(%ebp),%eax
 1003d3a:	50                   	push   %eax
 1003d3b:	68 2c 16 00 01       	push   $0x100162c
 1003d40:	ff 75 9c             	pushl  -0x64(%ebp)
 1003d43:	e8 45 fc ff ff       	call   0x100398d
 1003d48:	a2 35 ab 00 01       	mov    %al,0x100ab35
 1003d4d:	0f b6 45 b6          	movzbl -0x4a(%ebp),%eax
 1003d51:	50                   	push   %eax
 1003d52:	68 14 16 00 01       	push   $0x1001614
 1003d57:	ff 75 9c             	pushl  -0x64(%ebp)
 1003d5a:	e8 2e fc ff ff       	call   0x100398d
 1003d5f:	a2 36 ab 00 01       	mov    %al,0x100ab36
 1003d64:	0f b6 45 b7          	movzbl -0x49(%ebp),%eax
 1003d68:	50                   	push   %eax
 1003d69:	68 00 16 00 01       	push   $0x1001600
 1003d6e:	ff 75 9c             	pushl  -0x64(%ebp)
 1003d71:	e8 17 fc ff ff       	call   0x100398d
 1003d76:	a2 37 ab 00 01       	mov    %al,0x100ab37
 1003d7b:	0f b6 45 b8          	movzbl -0x48(%ebp),%eax
 1003d7f:	50                   	push   %eax
 1003d80:	68 e0 15 00 01       	push   $0x10015e0
 1003d85:	ff 75 9c             	pushl  -0x64(%ebp)
 1003d88:	e8 00 fc ff ff       	call   0x100398d
 1003d8d:	a2 38 ab 00 01       	mov    %al,0x100ab38
 1003d92:	0f b6 45 b9          	movzbl -0x47(%ebp),%eax
 1003d96:	50                   	push   %eax
 1003d97:	68 c0 15 00 01       	push   $0x10015c0
 1003d9c:	ff 75 9c             	pushl  -0x64(%ebp)
 1003d9f:	e8 e9 fb ff ff       	call   0x100398d
 1003da4:	a2 39 ab 00 01       	mov    %al,0x100ab39
 1003da9:	0f b6 45 ba          	movzbl -0x46(%ebp),%eax
 1003dad:	50                   	push   %eax
 1003dae:	68 ac 15 00 01       	push   $0x10015ac
 1003db3:	ff 75 9c             	pushl  -0x64(%ebp)
 1003db6:	e8 d2 fb ff ff       	call   0x100398d
 1003dbb:	a2 3a ab 00 01       	mov    %al,0x100ab3a
 1003dc0:	0f b6 45 bb          	movzbl -0x45(%ebp),%eax
 1003dc4:	50                   	push   %eax
 1003dc5:	68 88 15 00 01       	push   $0x1001588
 1003dca:	ff 75 9c             	pushl  -0x64(%ebp)
 1003dcd:	e8 bb fb ff ff       	call   0x100398d
 1003dd2:	6a 20                	push   $0x20
 1003dd4:	68 3c ab 00 01       	push   $0x100ab3c
 1003dd9:	68 dc 16 00 01       	push   $0x10016dc
 1003dde:	68 0c 15 00 01       	push   $0x100150c
 1003de3:	ff 75 9c             	pushl  -0x64(%ebp)
 1003de6:	a2 3b ab 00 01       	mov    %al,0x100ab3b
 1003deb:	e8 f2 fb ff ff       	call   0x10039e2
 1003df0:	6a 64                	push   $0x64
 1003df2:	68 70 15 00 01       	push   $0x1001570
 1003df7:	ff 75 9c             	pushl  -0x64(%ebp)
 1003dfa:	e8 8e fb ff ff       	call   0x100398d
 1003dff:	57                   	push   %edi
 1003e00:	68 64 15 00 01       	push   $0x1001564
 1003e05:	ff 75 9c             	pushl  -0x64(%ebp)
 1003e08:	a3 18 90 00 01       	mov    %eax,0x1009018
 1003e0d:	e8 7b fb ff ff       	call   0x100398d
 1003e12:	a3 50 98 00 01       	mov    %eax,0x1009850
 1003e17:	57                   	push   %edi
 1003e18:	68 50 15 00 01       	push   $0x1001550
 1003e1d:	ff 75 9c             	pushl  -0x64(%ebp)
 1003e20:	e8 68 fb ff ff       	call   0x100398d
 1003e25:	57                   	push   %edi
 1003e26:	68 24 15 00 01       	push   $0x1001524
 1003e2b:	ff 75 9c             	pushl  -0x64(%ebp)
 1003e2e:	a3 40 98 00 01       	mov    %eax,0x1009840
 1003e33:	e8 55 fb ff ff       	call   0x100398d
 1003e38:	6a 28                	push   $0x28
 1003e3a:	a3 84 9a 00 01       	mov    %eax,0x1009a84
 1003e3f:	b8 e0 a3 00 01       	mov    $0x100a3e0,%eax
 1003e44:	50                   	push   %eax
 1003e45:	50                   	push   %eax
 1003e46:	68 f8 14 00 01       	push   $0x10014f8
 1003e4b:	ff 75 9c             	pushl  -0x64(%ebp)
 1003e4e:	e8 8f fb ff ff       	call   0x10039e2
 1003e53:	6a 28                	push   $0x28
 1003e55:	b8 30 a4 00 01       	mov    $0x100a430,%eax
 1003e5a:	50                   	push   %eax
 1003e5b:	50                   	push   %eax
 1003e5c:	68 e4 14 00 01       	push   $0x10014e4
 1003e61:	ff 75 9c             	pushl  -0x64(%ebp)
 1003e64:	e8 79 fb ff ff       	call   0x10039e2
 1003e69:	ff 35 d0 a4 00 01    	pushl  0x100a4d0
 1003e6f:	68 cc 14 00 01       	push   $0x10014cc
 1003e74:	ff 75 9c             	pushl  -0x64(%ebp)
 1003e77:	e8 11 fb ff ff       	call   0x100398d
 1003e7c:	ff 35 d8 a4 00 01    	pushl  0x100a4d8
 1003e82:	a3 d0 a4 00 01       	mov    %eax,0x100a4d0
 1003e87:	68 b0 14 00 01       	push   $0x10014b0
 1003e8c:	ff 75 9c             	pushl  -0x64(%ebp)
 1003e8f:	e8 f9 fa ff ff       	call   0x100398d
 1003e94:	ff 35 cc a4 00 01    	pushl  0x100a4cc
 1003e9a:	a3 d8 a4 00 01       	mov    %eax,0x100a4d8
 1003e9f:	68 98 14 00 01       	push   $0x1001498
 1003ea4:	ff 75 9c             	pushl  -0x64(%ebp)
 1003ea7:	e8 e1 fa ff ff       	call   0x100398d
 1003eac:	ff 35 d4 a4 00 01    	pushl  0x100a4d4
 1003eb2:	a3 cc a4 00 01       	mov    %eax,0x100a4cc
 1003eb7:	68 7c 14 00 01       	push   $0x100147c
 1003ebc:	ff 75 9c             	pushl  -0x64(%ebp)
 1003ebf:	e8 c9 fa ff ff       	call   0x100398d
 1003ec4:	be 00 00 00 80       	mov    $0x80000000,%esi
 1003ec9:	56                   	push   %esi
 1003eca:	68 2c 14 00 01       	push   $0x100142c
 1003ecf:	ff 75 9c             	pushl  -0x64(%ebp)
 1003ed2:	a3 d4 a4 00 01       	mov    %eax,0x100a4d4
 1003ed7:	e8 b1 fa ff ff       	call   0x100398d
 1003edc:	56                   	push   %esi
 1003edd:	68 44 14 00 01       	push   $0x1001444
 1003ee2:	ff 75 9c             	pushl  -0x64(%ebp)
 1003ee5:	a3 7c 9a 00 01       	mov    %eax,0x1009a7c
 1003eea:	e8 9e fa ff ff       	call   0x100398d
 1003eef:	56                   	push   %esi
 1003ef0:	68 10 14 00 01       	push   $0x1001410
 1003ef5:	ff 75 9c             	pushl  -0x64(%ebp)
 1003ef8:	a3 78 9a 00 01       	mov    %eax,0x1009a78
 1003efd:	e8 8b fa ff ff       	call   0x100398d
 1003f02:	56                   	push   %esi
 1003f03:	68 f4 13 00 01       	push   $0x10013f4
 1003f08:	ff 75 9c             	pushl  -0x64(%ebp)
 1003f0b:	a3 74 9a 00 01       	mov    %eax,0x1009a74
 1003f10:	e8 78 fa ff ff       	call   0x100398d
 1003f15:	57                   	push   %edi
 1003f16:	68 5c 14 00 01       	push   $0x100145c
 1003f1b:	ff 75 9c             	pushl  -0x64(%ebp)
 1003f1e:	a3 70 9a 00 01       	mov    %eax,0x1009a70
 1003f23:	e8 65 fa ff ff       	call   0x100398d
 1003f28:	39 7d 9c             	cmp    %edi,-0x64(%ebp)
 1003f2b:	5f                   	pop    %edi
 1003f2c:	a3 58 98 00 01       	mov    %eax,0x1009858
 1003f31:	5e                   	pop    %esi
 1003f32:	74 09                	je     0x1003f3d
 1003f34:	ff 75 9c             	pushl  -0x64(%ebp)
 1003f37:	ff 15 04 10 00 01    	call   *0x1001004
 1003f3d:	8b 4d fc             	mov    -0x4(%ebp),%ecx
 1003f40:	e8 02 32 00 00       	call   0x1007147
 1003f45:	c9                   	leave  
 1003f46:	c3                   	ret    
 1003f47:	cc                   	int3   
 1003f48:	cc                   	int3   
 1003f49:	cc                   	int3   
 1003f4a:	cc                   	int3   
 1003f4b:	cc                   	int3   
 1003f4c:	8b ff                	mov    %edi,%edi
 1003f4e:	55                   	push   %ebp
 1003f4f:	8b ec                	mov    %esp,%ebp
 1003f51:	51                   	push   %ecx
 1003f52:	53                   	push   %ebx
 1003f53:	56                   	push   %esi
 1003f54:	57                   	push   %edi
 1003f55:	8b f9                	mov    %ecx,%edi
 1003f57:	8b d8                	mov    %eax,%ebx
 1003f59:	66 8b 07             	mov    (%edi),%ax
 1003f5c:	66 85 c0             	test   %ax,%ax
 1003f5f:	74 27                	je     0x1003f88
 1003f61:	8b 35 c0 11 00 01    	mov    0x10011c0,%esi
 1003f67:	0f b7 c0             	movzwl %ax,%eax
 1003f6a:	50                   	push   %eax
 1003f6b:	ff d6                	call   *%esi
 1003f6d:	89 45 fc             	mov    %eax,-0x4(%ebp)
 1003f70:	0f b7 03             	movzwl (%ebx),%eax
 1003f73:	47                   	inc    %edi
 1003f74:	47                   	inc    %edi
 1003f75:	43                   	inc    %ebx
 1003f76:	50                   	push   %eax
 1003f77:	43                   	inc    %ebx
 1003f78:	ff d6                	call   *%esi
 1003f7a:	66 39 45 fc          	cmp    %ax,-0x4(%ebp)
 1003f7e:	75 0f                	jne    0x1003f8f
 1003f80:	66 8b 07             	mov    (%edi),%ax
 1003f83:	66 85 c0             	test   %ax,%ax
 1003f86:	75 df                	jne    0x1003f67
 1003f88:	33 c0                	xor    %eax,%eax
 1003f8a:	5f                   	pop    %edi
 1003f8b:	5e                   	pop    %esi
 1003f8c:	5b                   	pop    %ebx
 1003f8d:	c9                   	leave  
 1003f8e:	c3                   	ret    
 1003f8f:	33 c0                	xor    %eax,%eax
 1003f91:	40                   	inc    %eax
 1003f92:	eb f6                	jmp    0x1003f8a
 1003f94:	cc                   	int3   
 1003f95:	cc                   	int3   
 1003f96:	cc                   	int3   
 1003f97:	cc                   	int3   
 1003f98:	cc                   	int3   
 1003f99:	8b ff                	mov    %edi,%edi
 1003f9b:	55                   	push   %ebp
 1003f9c:	8b ec                	mov    %esp,%ebp
 1003f9e:	81 ec 54 02 00 00    	sub    $0x254,%esp
 1003fa4:	a1 04 96 00 01       	mov    0x1009604,%eax
 1003fa9:	53                   	push   %ebx
 1003faa:	8b 5d 08             	mov    0x8(%ebp),%ebx
 1003fad:	56                   	push   %esi
 1003fae:	8b 75 0c             	mov    0xc(%ebp),%esi
 1003fb1:	89 45 fc             	mov    %eax,-0x4(%ebp)
 1003fb4:	66 8b 06             	mov    (%esi),%ax
 1003fb7:	66 3d 22 00          	cmp    $0x22,%ax
 1003fbb:	57                   	push   %edi
 1003fbc:	8b cb                	mov    %ebx,%ecx
 1003fbe:	74 15                	je     0x1003fd5
 1003fc0:	66 3d 27 00          	cmp    $0x27,%ax
 1003fc4:	74 0f                	je     0x1003fd5
 1003fc6:	68 04 01 00 00       	push   $0x104
 1003fcb:	56                   	push   %esi
 1003fcc:	53                   	push   %ebx
 1003fcd:	ff 15 30 11 00 01    	call   *0x1001130
 1003fd3:	eb 2b                	jmp    0x1004000
 1003fd5:	33 d2                	xor    %edx,%edx
 1003fd7:	46                   	inc    %esi
 1003fd8:	8b f8                	mov    %eax,%edi
 1003fda:	46                   	inc    %esi
 1003fdb:	eb 17                	jmp    0x1003ff4
 1003fdd:	66 3b c7             	cmp    %di,%ax
 1003fe0:	74 1a                	je     0x1003ffc
 1003fe2:	81 fa 04 01 00 00    	cmp    $0x104,%edx
 1003fe8:	73 12                	jae    0x1003ffc
 1003fea:	66 89 01             	mov    %ax,(%ecx)
 1003fed:	41                   	inc    %ecx
 1003fee:	41                   	inc    %ecx
 1003fef:	42                   	inc    %edx
 1003ff0:	46                   	inc    %esi
 1003ff1:	46                   	inc    %esi
 1003ff2:	33 c0                	xor    %eax,%eax
 1003ff4:	66 8b 06             	mov    (%esi),%ax
 1003ff7:	66 85 c0             	test   %ax,%ax
 1003ffa:	75 e1                	jne    0x1003fdd
 1003ffc:	66 83 21 00          	andw   $0x0,(%ecx)
 1004000:	8b 3d 20 11 00 01    	mov    0x1001120,%edi
 1004006:	8d 85 ac fd ff ff    	lea    -0x254(%ebp),%eax
 100400c:	50                   	push   %eax
 100400d:	53                   	push   %ebx
 100400e:	ff d7                	call   *%edi
 1004010:	83 f8 ff             	cmp    $0xffffffff,%eax
 1004013:	75 15                	jne    0x100402a
 1004015:	53                   	push   %ebx
 1004016:	e8 b2 0d 00 00       	call   0x1004dcd
 100401b:	8d 85 ac fd ff ff    	lea    -0x254(%ebp),%eax
 1004021:	50                   	push   %eax
 1004022:	53                   	push   %ebx
 1004023:	ff d7                	call   *%edi
 1004025:	83 f8 ff             	cmp    $0xffffffff,%eax
 1004028:	74 07                	je     0x1004031
 100402a:	50                   	push   %eax
 100402b:	ff 15 1c 11 00 01    	call   *0x100111c
 1004031:	8b 4d fc             	mov    -0x4(%ebp),%ecx
 1004034:	5f                   	pop    %edi
 1004035:	8b c6                	mov    %esi,%eax
 1004037:	5e                   	pop    %esi
 1004038:	5b                   	pop    %ebx
 1004039:	e8 09 31 00 00       	call   0x1007147
 100403e:	c9                   	leave  
 100403f:	c2 08 00             	ret    $0x8
 1004042:	cc                   	int3   
 1004043:	cc                   	int3   
 1004044:	cc                   	int3   
 1004045:	cc                   	int3   
 1004046:	cc                   	int3   
 1004047:	8b ff                	mov    %edi,%edi
 1004049:	55                   	push   %ebp
 100404a:	8b ec                	mov    %esp,%ebp
 100404c:	51                   	push   %ecx
 100404d:	53                   	push   %ebx
 100404e:	56                   	push   %esi
 100404f:	57                   	push   %edi
 1004050:	be 18 01 00 00       	mov    $0x118,%esi
 1004055:	68 30 02 00 00       	push   $0x230
 100405a:	eb 3f                	jmp    0x100409b
 100405c:	33 ff                	xor    %edi,%edi
 100405e:	33 db                	xor    %ebx,%ebx
 1004060:	8b 04 bd e8 90 00 01 	mov    0x10090e8(,%edi,4),%eax
 1004067:	56                   	push   %esi
 1004068:	ff 75 fc             	pushl  -0x4(%ebp)
 100406b:	ff 30                	pushl  (%eax)
 100406d:	ff 75 08             	pushl  0x8(%ebp)
 1004070:	ff 15 c4 11 00 01    	call   *0x10011c4
 1004076:	8d 4e ff             	lea    -0x1(%esi),%ecx
 1004079:	3b c1                	cmp    %ecx,%eax
 100407b:	7d 0a                	jge    0x1004087
 100407d:	47                   	inc    %edi
 100407e:	83 ff 2d             	cmp    $0x2d,%edi
 1004081:	8d 5c 03 01          	lea    0x1(%ebx,%eax,1),%ebx
 1004085:	7c d9                	jl     0x1004060
 1004087:	ff 75 fc             	pushl  -0x4(%ebp)
 100408a:	ff 15 dc 10 00 01    	call   *0x10010dc
 1004090:	83 ff 2d             	cmp    $0x2d,%edi
 1004093:	7d 17                	jge    0x10040ac
 1004095:	03 f6                	add    %esi,%esi
 1004097:	8d 04 36             	lea    (%esi,%esi,1),%eax
 100409a:	50                   	push   %eax
 100409b:	6a 40                	push   $0x40
 100409d:	ff 15 e0 10 00 01    	call   *0x10010e0
 10040a3:	85 c0                	test   %eax,%eax
 10040a5:	89 45 fc             	mov    %eax,-0x4(%ebp)
 10040a8:	75 b2                	jne    0x100405c
 10040aa:	eb 02                	jmp    0x10040ae
 10040ac:	8b c3                	mov    %ebx,%eax
 10040ae:	5f                   	pop    %edi
 10040af:	5e                   	pop    %esi
 10040b0:	5b                   	pop    %ebx
 10040b1:	c9                   	leave  
 10040b2:	c2 04 00             	ret    $0x4
 10040b5:	cc                   	int3   
 10040b6:	cc                   	int3   
 10040b7:	cc                   	int3   
 10040b8:	cc                   	int3   
 10040b9:	cc                   	int3   
 10040ba:	8b ff                	mov    %edi,%edi
 10040bc:	55                   	push   %ebp
 10040bd:	8b ec                	mov    %esp,%ebp
 10040bf:	ff 75 08             	pushl  0x8(%ebp)
 10040c2:	e8 80 ff ff ff       	call   0x1004047
 10040c7:	85 c0                	test   %eax,%eax
 10040c9:	0f 84 8a 00 00 00    	je     0x1004159
 10040cf:	56                   	push   %esi
 10040d0:	03 c0                	add    %eax,%eax
 10040d2:	50                   	push   %eax
 10040d3:	6a 40                	push   $0x40
 10040d5:	ff 15 e0 10 00 01    	call   *0x10010e0
 10040db:	8b f0                	mov    %eax,%esi
 10040dd:	85 f6                	test   %esi,%esi
 10040df:	74 77                	je     0x1004158
 10040e1:	53                   	push   %ebx
 10040e2:	56                   	push   %esi
 10040e3:	ff 15 34 11 00 01    	call   *0x1001134
 10040e9:	8b d8                	mov    %eax,%ebx
 10040eb:	d1 eb                	shr    %ebx
 10040ed:	75 04                	jne    0x10040f3
 10040ef:	33 c0                	xor    %eax,%eax
 10040f1:	eb 64                	jmp    0x1004157
 10040f3:	57                   	push   %edi
 10040f4:	bf e8 90 00 01       	mov    $0x10090e8,%edi
 10040f9:	8b 07                	mov    (%edi),%eax
 10040fb:	53                   	push   %ebx
 10040fc:	56                   	push   %esi
 10040fd:	ff 30                	pushl  (%eax)
 10040ff:	ff 75 08             	pushl  0x8(%ebp)
 1004102:	ff 15 c4 11 00 01    	call   *0x10011c4
 1004108:	8b 0f                	mov    (%edi),%ecx
 100410a:	40                   	inc    %eax
 100410b:	3b c3                	cmp    %ebx,%eax
 100410d:	89 31                	mov    %esi,(%ecx)
 100410f:	8d 34 46             	lea    (%esi,%eax,2),%esi
 1004112:	7f 49                	jg     0x100415d
 1004114:	83 c7 04             	add    $0x4,%edi
 1004117:	2b d8                	sub    %eax,%ebx
 1004119:	81 ff 9c 91 00 01    	cmp    $0x100919c,%edi
 100411f:	7c d8                	jl     0x10040f9
 1004121:	8b 35 30 11 00 01    	mov    0x1001130,%esi
 1004127:	6a 28                	push   $0x28
 1004129:	ff 35 78 90 00 01    	pushl  0x1009078
 100412f:	68 e0 a3 00 01       	push   $0x100a3e0
 1004134:	ff d6                	call   *%esi
 1004136:	6a 28                	push   $0x28
 1004138:	ff 35 7c 90 00 01    	pushl  0x100907c
 100413e:	68 30 a4 00 01       	push   $0x100a430
 1004143:	ff d6                	call   *%esi
 1004145:	a1 70 90 00 01       	mov    0x1009070,%eax
 100414a:	66 8b 00             	mov    (%eax),%ax
 100414d:	66 a3 90 ab 00 01    	mov    %ax,0x100ab90
 1004153:	33 c0                	xor    %eax,%eax
 1004155:	40                   	inc    %eax
 1004156:	5f                   	pop    %edi
 1004157:	5b                   	pop    %ebx
 1004158:	5e                   	pop    %esi
 1004159:	5d                   	pop    %ebp
 100415a:	c2 04 00             	ret    $0x4
 100415d:	6a 00                	push   $0x0
 100415f:	68 30 17 00 01       	push   $0x1001730
 1004164:	68 fc 16 00 01       	push   $0x10016fc
 1004169:	6a 00                	push   $0x0
 100416b:	ff 15 68 12 00 01    	call   *0x1001268
 1004171:	33 c0                	xor    %eax,%eax
 1004173:	eb e1                	jmp    0x1004156
 1004175:	cc                   	int3   
 1004176:	cc                   	int3   
 1004177:	cc                   	int3   
 1004178:	cc                   	int3   
 1004179:	cc                   	int3   
 100417a:	8b ff                	mov    %edi,%edi
 100417c:	55                   	push   %ebp
 100417d:	8b ec                	mov    %esp,%ebp
 100417f:	8b 45 08             	mov    0x8(%ebp),%eax
 1004182:	66 8b 08             	mov    (%eax),%cx
 1004185:	66 83 f9 20          	cmp    $0x20,%cx
 1004189:	74 06                	je     0x1004191
 100418b:	66 83 f9 09          	cmp    $0x9,%cx
 100418f:	75 04                	jne    0x1004195
 1004191:	40                   	inc    %eax
 1004192:	40                   	inc    %eax
 1004193:	eb ed                	jmp    0x1004182
 1004195:	5d                   	pop    %ebp
 1004196:	c2 04 00             	ret    $0x4
 1004199:	cc                   	int3   
 100419a:	cc                   	int3   
 100419b:	cc                   	int3   
 100419c:	cc                   	int3   
 100419d:	cc                   	int3   
 100419e:	8b ff                	mov    %edi,%edi
 10041a0:	55                   	push   %ebp
 10041a1:	8b ec                	mov    %esp,%ebp
 10041a3:	51                   	push   %ecx
 10041a4:	53                   	push   %ebx
 10041a5:	56                   	push   %esi
 10041a6:	8b 75 08             	mov    0x8(%ebp),%esi
 10041a9:	57                   	push   %edi
 10041aa:	33 ff                	xor    %edi,%edi
 10041ac:	8b c6                	mov    %esi,%eax
 10041ae:	b9 5c 17 00 01       	mov    $0x100175c,%ecx
 10041b3:	89 7d fc             	mov    %edi,-0x4(%ebp)
 10041b6:	e8 91 fd ff ff       	call   0x1003f4c
 10041bb:	85 c0                	test   %eax,%eax
 10041bd:	0f 85 28 01 00 00    	jne    0x10042eb
 10041c3:	57                   	push   %edi
 10041c4:	ff 35 30 98 00 01    	pushl  0x1009830
 10041ca:	c7 05 4c 98 00 01 01 	movl   $0x1,0x100984c
 10041d1:	00 00 00 
 10041d4:	ff 15 cc 11 00 01    	call   *0x10011cc
 10041da:	68 48 17 00 01       	push   $0x1001748
 10041df:	ff 35 80 ab 00 01    	pushl  0x100ab80
 10041e5:	a3 dc a6 00 01       	mov    %eax,0x100a6dc
 10041ea:	ff 15 c8 11 00 01    	call   *0x10011c8
 10041f0:	68 00 00 fd 00       	push   $0xfd0000
 10041f5:	6a f0                	push   $0xfffffff0
 10041f7:	ff 35 30 98 00 01    	pushl  0x1009830
 10041fd:	a3 d8 a6 00 01       	mov    %eax,0x100a6d8
 1004202:	ff 15 6c 12 00 01    	call   *0x100126c
 1004208:	83 c6 0e             	add    $0xe,%esi
 100420b:	56                   	push   %esi
 100420c:	e8 69 ff ff ff       	call   0x100417a
 1004211:	66 39 38             	cmp    %di,(%eax)
 1004214:	0f 84 cc 00 00 00    	je     0x10042e6
 100421a:	50                   	push   %eax
 100421b:	be 00 a9 00 01       	mov    $0x100a900,%esi
 1004220:	56                   	push   %esi
 1004221:	e8 73 fd ff ff       	call   0x1003f99
 1004226:	57                   	push   %edi
 1004227:	bb 80 00 00 00       	mov    $0x80,%ebx
 100422c:	53                   	push   %ebx
 100422d:	6a 03                	push   $0x3
 100422f:	57                   	push   %edi
 1004230:	8b 3d 04 11 00 01    	mov    0x1001104,%edi
 1004236:	6a 03                	push   $0x3
 1004238:	68 00 00 00 80       	push   $0x80000000
 100423d:	56                   	push   %esi
 100423e:	ff d7                	call   *%edi
 1004240:	83 f8 ff             	cmp    $0xffffffff,%eax
 1004243:	a3 80 a4 00 01       	mov    %eax,0x100a480
 1004248:	0f 85 84 00 00 00    	jne    0x10042d2
 100424e:	ff 15 38 11 00 01    	call   *0x1001138
 1004254:	48                   	dec    %eax
 1004255:	48                   	dec    %eax
 1004256:	74 39                	je     0x1004291
 1004258:	83 e8 03             	sub    $0x3,%eax
 100425b:	6a 31                	push   $0x31
 100425d:	56                   	push   %esi
 100425e:	74 29                	je     0x1004289
 1004260:	83 e8 76             	sub    $0x76,%eax
 1004263:	74 1c                	je     0x1004281
 1004265:	ff 35 34 90 00 01    	pushl  0x1009034
 100426b:	ff 35 54 90 00 01    	pushl  0x1009054
 1004271:	ff 35 30 98 00 01    	pushl  0x1009830
 1004277:	e8 f4 dc ff ff       	call   0x1001f70
 100427c:	89 45 fc             	mov    %eax,-0x4(%ebp)
 100427f:	eb 48                	jmp    0x10042c9
 1004281:	ff 35 64 90 00 01    	pushl  0x1009064
 1004287:	eb e2                	jmp    0x100426b
 1004289:	ff 35 9c 90 00 01    	pushl  0x100909c
 100428f:	eb da                	jmp    0x100426b
 1004291:	6a 33                	push   $0x33
 1004293:	56                   	push   %esi
 1004294:	ff 35 38 90 00 01    	pushl  0x1009038
 100429a:	ff 35 54 90 00 01    	pushl  0x1009054
 10042a0:	ff 35 30 98 00 01    	pushl  0x1009830
 10042a6:	e8 c5 dc ff ff       	call   0x1001f70
 10042ab:	83 f8 06             	cmp    $0x6,%eax
 10042ae:	89 45 fc             	mov    %eax,-0x4(%ebp)
 10042b1:	75 16                	jne    0x10042c9
 10042b3:	6a 00                	push   $0x0
 10042b5:	53                   	push   %ebx
 10042b6:	6a 04                	push   $0x4
 10042b8:	6a 00                	push   $0x0
 10042ba:	6a 03                	push   $0x3
 10042bc:	68 00 00 00 c0       	push   $0xc0000000
 10042c1:	56                   	push   %esi
 10042c2:	ff d7                	call   *%edi
 10042c4:	a3 80 a4 00 01       	mov    %eax,0x100a480
 10042c9:	83 3d 80 a4 00 01 ff 	cmpl   $0xffffffff,0x100a480
 10042d0:	74 19                	je     0x10042eb
 10042d2:	ff 35 80 9a 00 01    	pushl  0x1009a80
 10042d8:	56                   	push   %esi
 10042d9:	e8 9b 0e 00 00       	call   0x1005179
 10042de:	6a 02                	push   $0x2
 10042e0:	58                   	pop    %eax
 10042e1:	39 45 fc             	cmp    %eax,-0x4(%ebp)
 10042e4:	74 07                	je     0x10042ed
 10042e6:	6a 06                	push   $0x6
 10042e8:	58                   	pop    %eax
 10042e9:	eb 02                	jmp    0x10042ed
 10042eb:	33 c0                	xor    %eax,%eax
 10042ed:	5f                   	pop    %edi
 10042ee:	5e                   	pop    %esi
 10042ef:	5b                   	pop    %ebx
 10042f0:	c9                   	leave  
 10042f1:	c2 04 00             	ret    $0x4
 10042f4:	cc                   	int3   
 10042f5:	cc                   	int3   
 10042f6:	cc                   	int3   
 10042f7:	cc                   	int3   
 10042f8:	cc                   	int3   
 10042f9:	8b ff                	mov    %edi,%edi
 10042fb:	55                   	push   %ebp
 10042fc:	8b ec                	mov    %esp,%ebp
 10042fe:	51                   	push   %ecx
 10042ff:	56                   	push   %esi
 1004300:	8b 75 08             	mov    0x8(%ebp),%esi
 1004303:	57                   	push   %edi
 1004304:	8b c6                	mov    %esi,%eax
 1004306:	b9 74 17 00 01       	mov    $0x1001774,%ecx
 100430b:	c7 45 fc 01 00 00 00 	movl   $0x1,-0x4(%ebp)
 1004312:	e8 35 fc ff ff       	call   0x1003f4c
 1004317:	33 ff                	xor    %edi,%edi
 1004319:	85 c0                	test   %eax,%eax
 100431b:	75 0e                	jne    0x100432b
 100431d:	83 c6 06             	add    $0x6,%esi
 1004320:	56                   	push   %esi
 1004321:	e8 54 fe ff ff       	call   0x100417a
 1004326:	89 7d fc             	mov    %edi,-0x4(%ebp)
 1004329:	eb 1d                	jmp    0x1004348
 100432b:	8b c6                	mov    %esi,%eax
 100432d:	b9 6c 17 00 01       	mov    $0x100176c,%ecx
 1004332:	e8 15 fc ff ff       	call   0x1003f4c
 1004337:	85 c0                	test   %eax,%eax
 1004339:	0f 85 0c 01 00 00    	jne    0x100444b
 100433f:	83 c6 04             	add    $0x4,%esi
 1004342:	56                   	push   %esi
 1004343:	e8 32 fe ff ff       	call   0x100417a
 1004348:	8b f0                	mov    %eax,%esi
 100434a:	66 39 3e             	cmp    %di,(%esi)
 100434d:	0f 84 f8 00 00 00    	je     0x100444b
 1004353:	ff 75 0c             	pushl  0xc(%ebp)
 1004356:	ff 35 30 98 00 01    	pushl  0x1009830
 100435c:	ff 15 b0 11 00 01    	call   *0x10011b0
 1004362:	56                   	push   %esi
 1004363:	be 00 a9 00 01       	mov    $0x100a900,%esi
 1004368:	56                   	push   %esi
 1004369:	e8 2b fc ff ff       	call   0x1003f99
 100436e:	40                   	inc    %eax
 100436f:	40                   	inc    %eax
 1004370:	39 7d fc             	cmp    %edi,-0x4(%ebp)
 1004373:	75 4a                	jne    0x10043bf
 1004375:	66 39 38             	cmp    %di,(%eax)
 1004378:	0f 84 cd 00 00 00    	je     0x100444b
 100437e:	50                   	push   %eax
 100437f:	e8 f6 fd ff ff       	call   0x100417a
 1004384:	66 83 38 22          	cmpw   $0x22,(%eax)
 1004388:	0f 85 bd 00 00 00    	jne    0x100444b
 100438e:	40                   	inc    %eax
 100438f:	40                   	inc    %eax
 1004390:	33 d2                	xor    %edx,%edx
 1004392:	eb 1b                	jmp    0x10043af
 1004394:	66 83 f9 22          	cmp    $0x22,%cx
 1004398:	74 1d                	je     0x10043b7
 100439a:	81 fa ff 00 00 00    	cmp    $0xff,%edx
 10043a0:	73 15                	jae    0x10043b7
 10043a2:	66 89 0c 55 40 a1 00 	mov    %cx,0x100a140(,%edx,2)
 10043a9:	01 
 10043aa:	42                   	inc    %edx
 10043ab:	40                   	inc    %eax
 10043ac:	40                   	inc    %eax
 10043ad:	33 c9                	xor    %ecx,%ecx
 10043af:	66 8b 08             	mov    (%eax),%cx
 10043b2:	66 3b cf             	cmp    %di,%cx
 10043b5:	75 dd                	jne    0x1004394
 10043b7:	66 89 3c 55 40 a1 00 	mov    %di,0x100a140(,%edx,2)
 10043be:	01 
 10043bf:	57                   	push   %edi
 10043c0:	68 80 00 00 00       	push   $0x80
 10043c5:	6a 03                	push   $0x3
 10043c7:	57                   	push   %edi
 10043c8:	6a 03                	push   $0x3
 10043ca:	68 00 00 00 80       	push   $0x80000000
 10043cf:	56                   	push   %esi
 10043d0:	ff 15 04 11 00 01    	call   *0x1001104
 10043d6:	83 f8 ff             	cmp    $0xffffffff,%eax
 10043d9:	a3 80 a4 00 01       	mov    %eax,0x100a480
 10043de:	75 4a                	jne    0x100442a
 10043e0:	ff 15 38 11 00 01    	call   *0x1001138
 10043e6:	48                   	dec    %eax
 10043e7:	48                   	dec    %eax
 10043e8:	74 24                	je     0x100440e
 10043ea:	83 e8 03             	sub    $0x3,%eax
 10043ed:	74 18                	je     0x1004407
 10043ef:	83 e8 3c             	sub    $0x3c,%eax
 10043f2:	74 13                	je     0x1004407
 10043f4:	83 e8 3a             	sub    $0x3a,%eax
 10043f7:	74 07                	je     0x1004400
 10043f9:	a1 34 90 00 01       	mov    0x1009034,%eax
 10043fe:	eb 13                	jmp    0x1004413
 1004400:	a1 64 90 00 01       	mov    0x1009064,%eax
 1004405:	eb 0c                	jmp    0x1004413
 1004407:	a1 9c 90 00 01       	mov    0x100909c,%eax
 100440c:	eb 05                	jmp    0x1004413
 100440e:	a1 38 90 00 01       	mov    0x1009038,%eax
 1004413:	6a 30                	push   $0x30
 1004415:	56                   	push   %esi
 1004416:	50                   	push   %eax
 1004417:	ff 35 54 90 00 01    	pushl  0x1009054
 100441d:	ff 35 30 98 00 01    	pushl  0x1009830
 1004423:	e8 48 db ff ff       	call   0x1001f70
 1004428:	eb 1c                	jmp    0x1004446
 100442a:	ff 35 80 9a 00 01    	pushl  0x1009a80
 1004430:	56                   	push   %esi
 1004431:	e8 43 0d 00 00       	call   0x1005179
 1004436:	39 7d fc             	cmp    %edi,-0x4(%ebp)
 1004439:	74 04                	je     0x100443f
 100443b:	6a 01                	push   $0x1
 100443d:	eb 02                	jmp    0x1004441
 100443f:	6a 02                	push   $0x2
 1004441:	e8 05 2a 00 00       	call   0x1006e4b
 1004446:	33 c0                	xor    %eax,%eax
 1004448:	40                   	inc    %eax
 1004449:	eb 02                	jmp    0x100444d
 100444b:	33 c0                	xor    %eax,%eax
 100444d:	5f                   	pop    %edi
 100444e:	5e                   	pop    %esi
 100444f:	c9                   	leave  
 1004450:	c2 08 00             	ret    $0x8
 1004453:	cc                   	int3   
 1004454:	cc                   	int3   
 1004455:	cc                   	int3   
 1004456:	cc                   	int3   
 1004457:	cc                   	int3   
 1004458:	8b ff                	mov    %edi,%edi
 100445a:	55                   	push   %ebp
 100445b:	8b ec                	mov    %esp,%ebp
 100445d:	53                   	push   %ebx
 100445e:	8b 5d 08             	mov    0x8(%ebp),%ebx
 1004461:	56                   	push   %esi
 1004462:	8b 35 fc 10 00 01    	mov    0x10010fc,%esi
 1004468:	57                   	push   %edi
 1004469:	ff 35 84 90 00 01    	pushl  0x1009084
 100446f:	53                   	push   %ebx
 1004470:	ff d6                	call   *%esi
 1004472:	8b 3d e4 10 00 01    	mov    0x10010e4,%edi
 1004478:	53                   	push   %ebx
 1004479:	ff d7                	call   *%edi
 100447b:	8d 5c 43 02          	lea    0x2(%ebx,%eax,2),%ebx
 100447f:	68 cc 13 00 01       	push   $0x10013cc
 1004484:	53                   	push   %ebx
 1004485:	ff d6                	call   *%esi
 1004487:	53                   	push   %ebx
 1004488:	ff d7                	call   *%edi
 100448a:	ff 35 88 90 00 01    	pushl  0x1009088
 1004490:	8d 5c 43 02          	lea    0x2(%ebx,%eax,2),%ebx
 1004494:	53                   	push   %ebx
 1004495:	ff d6                	call   *%esi
 1004497:	53                   	push   %ebx
 1004498:	ff d7                	call   *%edi
 100449a:	8d 5c 43 02          	lea    0x2(%ebx,%eax,2),%ebx
 100449e:	68 7c 17 00 01       	push   $0x100177c
 10044a3:	53                   	push   %ebx
 10044a4:	ff d6                	call   *%esi
 10044a6:	53                   	push   %ebx
 10044a7:	ff d7                	call   *%edi
 10044a9:	66 83 64 43 02 00    	andw   $0x0,0x2(%ebx,%eax,2)
 10044af:	5f                   	pop    %edi
 10044b0:	5e                   	pop    %esi
 10044b1:	5b                   	pop    %ebx
 10044b2:	5d                   	pop    %ebp
 10044b3:	c2 04 00             	ret    $0x4
 10044b6:	cc                   	int3   
 10044b7:	cc                   	int3   
 10044b8:	cc                   	int3   
 10044b9:	cc                   	int3   
 10044ba:	cc                   	int3   
 10044bb:	8b ff                	mov    %edi,%edi
 10044bd:	55                   	push   %ebp
 10044be:	8b ec                	mov    %esp,%ebp
 10044c0:	8b 45 08             	mov    0x8(%ebp),%eax
 10044c3:	8a 40 17             	mov    0x17(%eax),%al
 10044c6:	8b 4d 14             	mov    0x14(%ebp),%ecx
 10044c9:	88 41 17             	mov    %al,0x17(%ecx)
 10044cc:	33 c0                	xor    %eax,%eax
 10044ce:	5d                   	pop    %ebp
 10044cf:	c2 10 00             	ret    $0x10
 10044d2:	cc                   	int3   
 10044d3:	cc                   	int3   
 10044d4:	cc                   	int3   
 10044d5:	cc                   	int3   
 10044d6:	cc                   	int3   
 10044d7:	8b ff                	mov    %edi,%edi
 10044d9:	55                   	push   %ebp
 10044da:	8b ec                	mov    %esp,%ebp
 10044dc:	83 ec 30             	sub    $0x30,%esp
 10044df:	57                   	push   %edi
 10044e0:	6a 29                	push   $0x29
 10044e2:	c7 45 d0 30 00 00 00 	movl   $0x30,-0x30(%ebp)
 10044e9:	ff 15 1c 12 00 01    	call   *0x100121c
 10044ef:	f7 d8                	neg    %eax
 10044f1:	1b c0                	sbb    %eax,%eax
 10044f3:	05 01 7f 00 00       	add    $0x7f01,%eax
 10044f8:	50                   	push   %eax
 10044f9:	33 ff                	xor    %edi,%edi
 10044fb:	57                   	push   %edi
 10044fc:	ff 15 d8 11 00 01    	call   *0x10011d8
 1004502:	6a 02                	push   $0x2
 1004504:	56                   	push   %esi
 1004505:	89 45 ec             	mov    %eax,-0x14(%ebp)
 1004508:	ff 15 ec 11 00 01    	call   *0x10011ec
 100450e:	57                   	push   %edi
 100450f:	6a 10                	push   $0x10
 1004511:	6a 10                	push   $0x10
 1004513:	6a 01                	push   $0x1
 1004515:	6a 02                	push   $0x2
 1004517:	56                   	push   %esi
 1004518:	89 45 e8             	mov    %eax,-0x18(%ebp)
 100451b:	ff 15 d4 11 00 01    	call   *0x10011d4
 1004521:	89 45 fc             	mov    %eax,-0x4(%ebp)
 1004524:	8d 45 d0             	lea    -0x30(%ebp),%eax
 1004527:	50                   	push   %eax
 1004528:	c7 45 f4 01 00 00 00 	movl   $0x1,-0xc(%ebp)
 100452f:	89 75 e4             	mov    %esi,-0x1c(%ebp)
 1004532:	c7 45 f8 20 90 00 01 	movl   $0x1009020,-0x8(%ebp)
 1004539:	c7 45 d8 29 34 00 01 	movl   $0x1003429,-0x28(%ebp)
 1004540:	c7 45 f0 06 00 00 00 	movl   $0x6,-0x10(%ebp)
 1004547:	89 7d d4             	mov    %edi,-0x2c(%ebp)
 100454a:	89 7d dc             	mov    %edi,-0x24(%ebp)
 100454d:	89 7d e0             	mov    %edi,-0x20(%ebp)
 1004550:	ff 15 d0 11 00 01    	call   *0x10011d0
 1004556:	66 f7 d8             	neg    %ax
 1004559:	5f                   	pop    %edi
 100455a:	1b c0                	sbb    %eax,%eax
 100455c:	f7 d8                	neg    %eax
 100455e:	c9                   	leave  
 100455f:	c3                   	ret    
 1004560:	cc                   	int3   
 1004561:	cc                   	int3   
 1004562:	cc                   	int3   
 1004563:	cc                   	int3   
 1004564:	cc                   	int3   
 1004565:	8b ff                	mov    %edi,%edi
 1004567:	55                   	push   %ebp
 1004568:	8b ec                	mov    %esp,%ebp
 100456a:	81 ec a8 00 00 00    	sub    $0xa8,%esp
 1004570:	a1 04 96 00 01       	mov    0x1009604,%eax
 1004575:	53                   	push   %ebx
 1004576:	56                   	push   %esi
 1004577:	8b 75 08             	mov    0x8(%ebp),%esi
 100457a:	57                   	push   %edi
 100457b:	8b 3d f8 11 00 01    	mov    0x10011f8,%edi
 1004581:	89 45 fc             	mov    %eax,-0x4(%ebp)
 1004584:	8b 45 10             	mov    0x10(%ebp),%eax
 1004587:	68 cc 17 00 01       	push   $0x10017cc
 100458c:	89 75 ac             	mov    %esi,-0x54(%ebp)
 100458f:	89 45 b0             	mov    %eax,-0x50(%ebp)
 1004592:	ff d7                	call   *%edi
 1004594:	33 db                	xor    %ebx,%ebx
 1004596:	3b c3                	cmp    %ebx,%eax
 1004598:	a3 88 a4 00 01       	mov    %eax,0x100a488
 100459d:	0f 84 0b 04 00 00    	je     0x10049ae
 10045a3:	68 b0 17 00 01       	push   $0x10017b0
 10045a8:	ff d7                	call   *%edi
 10045aa:	3b c3                	cmp    %ebx,%eax
 10045ac:	a3 84 a4 00 01       	mov    %eax,0x100a484
 10045b1:	0f 84 f7 03 00 00    	je     0x10049ae
 10045b7:	53                   	push   %ebx
 10045b8:	ff 15 94 11 00 01    	call   *0x1001194
 10045be:	3b c3                	cmp    %ebx,%eax
 10045c0:	89 45 b8             	mov    %eax,-0x48(%ebp)
 10045c3:	0f 84 e5 03 00 00    	je     0x10049ae
 10045c9:	56                   	push   %esi
 10045ca:	e8 eb fa ff ff       	call   0x10040ba
 10045cf:	85 c0                	test   %eax,%eax
 10045d1:	0f 84 d7 03 00 00    	je     0x10049ae
 10045d7:	6a 29                	push   $0x29
 10045d9:	ff 15 1c 12 00 01    	call   *0x100121c
 10045df:	8b 3d d8 11 00 01    	mov    0x10011d8,%edi
 10045e5:	f7 d8                	neg    %eax
 10045e7:	1b c0                	sbb    %eax,%eax
 10045e9:	05 01 7f 00 00       	add    $0x7f01,%eax
 10045ee:	50                   	push   %eax
 10045ef:	53                   	push   %ebx
 10045f0:	ff d7                	call   *%edi
 10045f2:	68 02 7f 00 00       	push   $0x7f02
 10045f7:	53                   	push   %ebx
 10045f8:	a3 88 ab 00 01       	mov    %eax,0x100ab88
 10045fd:	ff d7                	call   *%edi
 10045ff:	68 a0 17 00 01       	push   $0x10017a0
 1004604:	56                   	push   %esi
 1004605:	a3 84 ab 00 01       	mov    %eax,0x100ab84
 100460a:	ff 15 c8 11 00 01    	call   *0x10011c8
 1004610:	39 1d 84 ab 00 01    	cmp    %ebx,0x100ab84
 1004616:	a3 d8 a6 00 01       	mov    %eax,0x100a6d8
 100461b:	0f 84 8d 03 00 00    	je     0x10049ae
 1004621:	3b c3                	cmp    %ebx,%eax
 1004623:	0f 84 85 03 00 00    	je     0x10049ae
 1004629:	39 5d 0c             	cmp    %ebx,0xc(%ebp)
 100462c:	75 0d                	jne    0x100463b
 100462e:	e8 a4 fe ff ff       	call   0x10044d7
 1004633:	85 c0                	test   %eax,%eax
 1004635:	0f 84 73 03 00 00    	je     0x10049ae
 100463b:	89 35 80 ab 00 01    	mov    %esi,0x100ab80
 1004641:	c7 05 a0 a4 00 01 54 	movl   $0x54,0x100a4a0
 1004648:	00 00 00 
 100464b:	89 1d a8 a4 00 01    	mov    %ebx,0x100a4a8
 1004651:	89 1d ac a4 00 01    	mov    %ebx,0x100a4ac
 1004657:	89 35 dc a4 00 01    	mov    %esi,0x100a4dc
 100465d:	e8 fb d2 ff ff       	call   0x100195d
 1004662:	e8 2b f6 ff ff       	call   0x1003c92
 1004667:	53                   	push   %ebx
 1004668:	56                   	push   %esi
 1004669:	53                   	push   %ebx
 100466a:	53                   	push   %ebx
 100466b:	ff 35 70 9a 00 01    	pushl  0x1009a70
 1004671:	be 94 13 00 01       	mov    $0x1001394,%esi
 1004676:	ff 35 74 9a 00 01    	pushl  0x1009a74
 100467c:	ff 35 7c 9a 00 01    	pushl  0x1009a7c
 1004682:	ff 35 78 9a 00 01    	pushl  0x1009a78
 1004688:	68 00 00 cf 00       	push   $0xcf0000
 100468d:	56                   	push   %esi
 100468e:	68 20 90 00 01       	push   $0x1009020
 1004693:	53                   	push   %ebx
 1004694:	ff 15 e0 11 00 01    	call   *0x10011e0
 100469a:	8b d0                	mov    %eax,%edx
 100469c:	3b d3                	cmp    %ebx,%edx
 100469e:	89 15 30 98 00 01    	mov    %edx,0x1009830
 10046a4:	89 15 a4 a4 00 01    	mov    %edx,0x100a4a4
 10046aa:	0f 84 fe 02 00 00    	je     0x10049ae
 10046b0:	b8 00 00 00 80       	mov    $0x80000000,%eax
 10046b5:	39 05 74 9a 00 01    	cmp    %eax,0x1009a74
 10046bb:	74 62                	je     0x100471f
 10046bd:	39 05 70 9a 00 01    	cmp    %eax,0x1009a70
 10046c3:	74 5a                	je     0x100471f
 10046c5:	33 c0                	xor    %eax,%eax
 10046c7:	6a 0b                	push   $0xb
 10046c9:	59                   	pop    %ecx
 10046ca:	8d bd 58 ff ff ff    	lea    -0xa8(%ebp),%edi
 10046d0:	f3 ab                	rep stos %eax,%es:(%edi)
 10046d2:	a1 78 9a 00 01       	mov    0x1009a78,%eax
 10046d7:	8b 0d 74 9a 00 01    	mov    0x1009a74,%ecx
 10046dd:	89 85 74 ff ff ff    	mov    %eax,-0x8c(%ebp)
 10046e3:	03 c1                	add    %ecx,%eax
 10046e5:	8b 0d 70 9a 00 01    	mov    0x1009a70,%ecx
 10046eb:	89 85 7c ff ff ff    	mov    %eax,-0x84(%ebp)
 10046f1:	a1 7c 9a 00 01       	mov    0x1009a7c,%eax
 10046f6:	89 85 78 ff ff ff    	mov    %eax,-0x88(%ebp)
 10046fc:	03 c1                	add    %ecx,%eax
 10046fe:	89 45 80             	mov    %eax,-0x80(%ebp)
 1004701:	8d 85 58 ff ff ff    	lea    -0xa8(%ebp),%eax
 1004707:	50                   	push   %eax
 1004708:	52                   	push   %edx
 1004709:	c7 85 58 ff ff ff 2c 	movl   $0x2c,-0xa8(%ebp)
 1004710:	00 00 00 
 1004713:	ff 15 dc 11 00 01    	call   *0x10011dc
 1004719:	8b 15 30 98 00 01    	mov    0x1009830,%edx
 100471f:	6a 01                	push   $0x1
 1004721:	52                   	push   %edx
 1004722:	ff 15 7c 11 00 01    	call   *0x100117c
 1004728:	8b 3d 88 11 00 01    	mov    0x1001188,%edi
 100472e:	8d 45 84             	lea    -0x7c(%ebp),%eax
 1004731:	50                   	push   %eax
 1004732:	ff 35 30 98 00 01    	pushl  0x1009830
 1004738:	ff d7                	call   *%edi
 100473a:	8b 45 90             	mov    -0x70(%ebp),%eax
 100473d:	53                   	push   %ebx
 100473e:	ff 75 ac             	pushl  -0x54(%ebp)
 1004741:	83 c0 9c             	add    $0xffffff9c,%eax
 1004744:	6a 0f                	push   $0xf
 1004746:	ff 35 30 98 00 01    	pushl  0x1009830
 100474c:	50                   	push   %eax
 100474d:	ff 75 8c             	pushl  -0x74(%ebp)
 1004750:	a1 50 98 00 01       	mov    0x1009850,%eax
 1004755:	f7 d8                	neg    %eax
 1004757:	53                   	push   %ebx
 1004758:	1b c0                	sbb    %eax,%eax
 100475a:	53                   	push   %ebx
 100475b:	25 00 00 f0 ff       	and    $0xfff00000,%eax
 1004760:	05 04 01 30 50       	add    $0x50300104,%eax
 1004765:	50                   	push   %eax
 1004766:	56                   	push   %esi
 1004767:	68 94 17 00 01       	push   $0x1001794
 100476c:	68 00 02 00 00       	push   $0x200
 1004771:	ff 15 e0 11 00 01    	call   *0x10011e0
 1004777:	3b c3                	cmp    %ebx,%eax
 1004779:	a3 38 98 00 01       	mov    %eax,0x1009838
 100477e:	0f 84 2a 02 00 00    	je     0x10049ae
 1004784:	a1 40 98 00 01       	mov    0x1009840,%eax
 1004789:	f7 d8                	neg    %eax
 100478b:	68 01 04 00 00       	push   $0x401
 1004790:	ff 35 30 98 00 01    	pushl  0x1009830
 1004796:	1b c0                	sbb    %eax,%eax
 1004798:	25 00 00 00 10       	and    $0x10000000,%eax
 100479d:	56                   	push   %esi
 100479e:	0d 00 00 80 44       	or     $0x44800000,%eax
 10047a3:	50                   	push   %eax
 10047a4:	ff 15 20 10 00 01    	call   *0x1001020
 10047aa:	3b c3                	cmp    %ebx,%eax
 10047ac:	a3 34 98 00 01       	mov    %eax,0x1009834
 10047b1:	0f 84 f7 01 00 00    	je     0x10049ae
 10047b7:	6a 01                	push   $0x1
 10047b9:	e8 84 d4 ff ff       	call   0x1001c42
 10047be:	8d 45 94             	lea    -0x6c(%ebp),%eax
 10047c1:	50                   	push   %eax
 10047c2:	ff 35 34 98 00 01    	pushl  0x1009834
 10047c8:	ff d7                	call   *%edi
 10047ca:	8b 45 a0             	mov    -0x60(%ebp),%eax
 10047cd:	2b 45 98             	sub    -0x68(%ebp),%eax
 10047d0:	6a 04                	push   $0x4
 10047d2:	a3 e0 a6 00 01       	mov    %eax,0x100a6e0
 10047d7:	8b 45 9c             	mov    -0x64(%ebp),%eax
 10047da:	2b 45 94             	sub    -0x6c(%ebp),%eax
 10047dd:	59                   	pop    %ecx
 10047de:	8d 04 40             	lea    (%eax,%eax,2),%eax
 10047e1:	99                   	cltd   
 10047e2:	f7 f9                	idiv   %ecx
 10047e4:	8b 35 40 12 00 01    	mov    0x1001240,%esi
 10047ea:	83 4d a8 ff          	orl    $0xffffffff,-0x58(%ebp)
 10047ee:	89 45 a4             	mov    %eax,-0x5c(%ebp)
 10047f1:	8d 45 a4             	lea    -0x5c(%ebp),%eax
 10047f4:	50                   	push   %eax
 10047f5:	6a 02                	push   $0x2
 10047f7:	68 04 04 00 00       	push   $0x404
 10047fc:	ff 35 34 98 00 01    	pushl  0x1009834
 1004802:	ff d6                	call   *%esi
 1004804:	53                   	push   %ebx
 1004805:	ff 35 50 98 00 01    	pushl  0x1009850
 100480b:	68 c8 00 00 00       	push   $0xc8
 1004810:	ff 35 38 98 00 01    	pushl  0x1009838
 1004816:	ff d6                	call   *%esi
 1004818:	39 1d 50 98 00 01    	cmp    %ebx,0x1009850
 100481e:	74 20                	je     0x1004840
 1004820:	ff 35 30 98 00 01    	pushl  0x1009830
 1004826:	ff 15 64 12 00 01    	call   *0x1001264
 100482c:	6a 01                	push   $0x1
 100482e:	6a 1b                	push   $0x1b
 1004830:	6a 03                	push   $0x3
 1004832:	50                   	push   %eax
 1004833:	ff 15 60 12 00 01    	call   *0x1001260
 1004839:	50                   	push   %eax
 100483a:	ff 15 5c 12 00 01    	call   *0x100125c
 1004840:	68 d0 02 00 00       	push   $0x2d0
 1004845:	6a 5a                	push   $0x5a
 1004847:	ff 75 b8             	pushl  -0x48(%ebp)
 100484a:	ff 15 60 10 00 01    	call   *0x1001060
 1004850:	50                   	push   %eax
 1004851:	ff 35 18 90 00 01    	pushl  0x1009018
 1004857:	ff 15 2c 11 00 01    	call   *0x100112c
 100485d:	f7 d8                	neg    %eax
 100485f:	bf 20 ab 00 01       	mov    $0x100ab20,%edi
 1004864:	57                   	push   %edi
 1004865:	a3 20 ab 00 01       	mov    %eax,0x100ab20
 100486a:	ff 15 64 10 00 01    	call   *0x1001064
 1004870:	50                   	push   %eax
 1004871:	ff 75 b8             	pushl  -0x48(%ebp)
 1004874:	a3 7c ab 00 01       	mov    %eax,0x100ab7c
 1004879:	ff 15 84 10 00 01    	call   *0x1001084
 100487f:	89 45 b4             	mov    %eax,-0x4c(%ebp)
 1004882:	8d 45 bc             	lea    -0x44(%ebp),%eax
 1004885:	50                   	push   %eax
 1004886:	6a 20                	push   $0x20
 1004888:	ff 75 b8             	pushl  -0x48(%ebp)
 100488b:	ff 15 48 10 00 01    	call   *0x1001048
 1004891:	ff 75 b4             	pushl  -0x4c(%ebp)
 1004894:	ff 75 b8             	pushl  -0x48(%ebp)
 1004897:	ff 15 84 10 00 01    	call   *0x1001084
 100489d:	68 3c ab 00 01       	push   $0x100ab3c
 10048a2:	8d 45 bc             	lea    -0x44(%ebp),%eax
 10048a5:	50                   	push   %eax
 10048a6:	ff 15 08 11 00 01    	call   *0x1001108
 10048ac:	85 c0                	test   %eax,%eax
 10048ae:	74 2c                	je     0x10048dc
 10048b0:	57                   	push   %edi
 10048b1:	68 bb 44 00 01       	push   $0x10044bb
 10048b6:	68 3c ab 00 01       	push   $0x100ab3c
 10048bb:	ff 75 b8             	pushl  -0x48(%ebp)
 10048be:	ff 15 54 10 00 01    	call   *0x1001054
 10048c4:	ff 35 7c ab 00 01    	pushl  0x100ab7c
 10048ca:	ff 15 68 10 00 01    	call   *0x1001068
 10048d0:	57                   	push   %edi
 10048d1:	ff 15 64 10 00 01    	call   *0x1001064
 10048d7:	a3 7c ab 00 01       	mov    %eax,0x100ab7c
 10048dc:	53                   	push   %ebx
 10048dd:	ff 35 7c ab 00 01    	pushl  0x100ab7c
 10048e3:	6a 30                	push   $0x30
 10048e5:	ff 35 38 98 00 01    	pushl  0x1009838
 10048eb:	ff d6                	call   *%esi
 10048ed:	ff 75 b8             	pushl  -0x48(%ebp)
 10048f0:	53                   	push   %ebx
 10048f1:	ff 15 90 11 00 01    	call   *0x1001190
 10048f7:	6a 02                	push   $0x2
 10048f9:	6a 42                	push   $0x42
 10048fb:	66 89 1d 00 a8 00 01 	mov    %bx,0x100a800
 1004902:	ff 15 e0 10 00 01    	call   *0x10010e0
 1004908:	53                   	push   %ebx
 1004909:	53                   	push   %ebx
 100490a:	68 c5 00 00 00       	push   $0xc5
 100490f:	ff 35 38 98 00 01    	pushl  0x1009838
 1004915:	a3 8c ab 00 01       	mov    %eax,0x100ab8c
 100491a:	ff 15 a4 12 00 01    	call   *0x10012a4
 1004920:	ff 35 40 90 00 01    	pushl  0x1009040
 1004926:	e8 2a e1 ff ff       	call   0x1002a55
 100492b:	ff 75 14             	pushl  0x14(%ebp)
 100492e:	ff 35 30 98 00 01    	pushl  0x1009830
 1004934:	ff 15 b0 11 00 01    	call   *0x10011b0
 100493a:	ff 35 88 ab 00 01    	pushl  0x100ab88
 1004940:	ff 15 8c 11 00 01    	call   *0x100118c
 1004946:	ff 75 b0             	pushl  -0x50(%ebp)
 1004949:	e8 2c f8 ff ff       	call   0x100417a
 100494e:	83 0d 80 9a 00 01 ff 	orl    $0xffffffff,0x1009a80
 1004955:	b9 8c 17 00 01       	mov    $0x100178c,%ecx
 100495a:	8b f8                	mov    %eax,%edi
 100495c:	e8 eb f5 ff ff       	call   0x1003f4c
 1004961:	85 c0                	test   %eax,%eax
 1004963:	75 08                	jne    0x100496d
 1004965:	89 1d 80 9a 00 01    	mov    %ebx,0x1009a80
 100496b:	eb 23                	jmp    0x1004990
 100496d:	8b c7                	mov    %edi,%eax
 100496f:	b9 84 17 00 01       	mov    $0x1001784,%ecx
 1004974:	e8 d3 f5 ff ff       	call   0x1003f4c
 1004979:	85 c0                	test   %eax,%eax
 100497b:	75 0a                	jne    0x1004987
 100497d:	c7 05 80 9a 00 01 01 	movl   $0x1,0x1009a80
 1004984:	00 00 00 
 1004987:	83 3d 80 9a 00 01 ff 	cmpl   $0xffffffff,0x1009a80
 100498e:	74 0b                	je     0x100499b
 1004990:	83 c7 04             	add    $0x4,%edi
 1004993:	57                   	push   %edi
 1004994:	e8 e1 f7 ff ff       	call   0x100417a
 1004999:	8b f8                	mov    %eax,%edi
 100499b:	57                   	push   %edi
 100499c:	e8 fd f7 ff ff       	call   0x100419e
 10049a1:	3b c3                	cmp    %ebx,%eax
 10049a3:	74 1a                	je     0x10049bf
 10049a5:	83 f8 02             	cmp    $0x2,%eax
 10049a8:	0f 85 ed 00 00 00    	jne    0x1004a9b
 10049ae:	33 c0                	xor    %eax,%eax
 10049b0:	8b 4d fc             	mov    -0x4(%ebp),%ecx
 10049b3:	5f                   	pop    %edi
 10049b4:	5e                   	pop    %esi
 10049b5:	5b                   	pop    %ebx
 10049b6:	e8 8c 27 00 00       	call   0x1007147
 10049bb:	c9                   	leave  
 10049bc:	c2 10 00             	ret    $0x10
 10049bf:	ff 75 14             	pushl  0x14(%ebp)
 10049c2:	57                   	push   %edi
 10049c3:	e8 31 f9 ff ff       	call   0x10042f9
 10049c8:	85 c0                	test   %eax,%eax
 10049ca:	74 15                	je     0x10049e1
 10049cc:	53                   	push   %ebx
 10049cd:	53                   	push   %ebx
 10049ce:	6a 10                	push   $0x10
 10049d0:	ff 35 30 98 00 01    	pushl  0x1009830
 10049d6:	ff 15 a4 12 00 01    	call   *0x10012a4
 10049dc:	e9 77 01 00 00       	jmp    0x1004b58
 10049e1:	66 39 1f             	cmp    %bx,(%edi)
 10049e4:	0f 84 b1 00 00 00    	je     0x1004a9b
 10049ea:	57                   	push   %edi
 10049eb:	bf 00 a9 00 01       	mov    $0x100a900,%edi
 10049f0:	57                   	push   %edi
 10049f1:	e8 a3 f5 ff ff       	call   0x1003f99
 10049f6:	53                   	push   %ebx
 10049f7:	68 80 00 00 00       	push   $0x80
 10049fc:	6a 03                	push   $0x3
 10049fe:	53                   	push   %ebx
 10049ff:	6a 03                	push   $0x3
 1004a01:	68 00 00 00 80       	push   $0x80000000
 1004a06:	57                   	push   %edi
 1004a07:	ff 15 04 11 00 01    	call   *0x1001104
 1004a0d:	83 f8 ff             	cmp    $0xffffffff,%eax
 1004a10:	a3 80 a4 00 01       	mov    %eax,0x100a480
 1004a15:	75 78                	jne    0x1004a8f
 1004a17:	ff 15 38 11 00 01    	call   *0x1001138
 1004a1d:	83 f8 02             	cmp    $0x2,%eax
 1004a20:	75 46                	jne    0x1004a68
 1004a22:	6a 33                	push   $0x33
 1004a24:	57                   	push   %edi
 1004a25:	ff 35 38 90 00 01    	pushl  0x1009038
 1004a2b:	ff 35 54 90 00 01    	pushl  0x1009054
 1004a31:	ff 35 30 98 00 01    	pushl  0x1009830
 1004a37:	e8 34 d5 ff ff       	call   0x1001f70
 1004a3c:	83 f8 02             	cmp    $0x2,%eax
 1004a3f:	0f 84 69 ff ff ff    	je     0x10049ae
 1004a45:	83 f8 06             	cmp    $0x6,%eax
 1004a48:	75 3c                	jne    0x1004a86
 1004a4a:	53                   	push   %ebx
 1004a4b:	68 80 00 00 00       	push   $0x80
 1004a50:	6a 04                	push   $0x4
 1004a52:	53                   	push   %ebx
 1004a53:	6a 03                	push   $0x3
 1004a55:	68 00 00 00 c0       	push   $0xc0000000
 1004a5a:	57                   	push   %edi
 1004a5b:	ff 15 04 11 00 01    	call   *0x1001104
 1004a61:	a3 80 a4 00 01       	mov    %eax,0x100a480
 1004a66:	eb 1e                	jmp    0x1004a86
 1004a68:	57                   	push   %edi
 1004a69:	e8 b2 03 00 00       	call   0x1004e20
 1004a6e:	ff 35 40 90 00 01    	pushl  0x1009040
 1004a74:	e8 dc df ff ff       	call   0x1002a55
 1004a79:	ff 35 40 90 00 01    	pushl  0x1009040
 1004a7f:	57                   	push   %edi
 1004a80:	ff 15 fc 10 00 01    	call   *0x10010fc
 1004a86:	83 3d 80 a4 00 01 ff 	cmpl   $0xffffffff,0x100a480
 1004a8d:	74 0c                	je     0x1004a9b
 1004a8f:	ff 35 80 9a 00 01    	pushl  0x1009a80
 1004a95:	57                   	push   %edi
 1004a96:	e8 de 06 00 00       	call   0x1005179
 1004a9b:	68 e0 a5 00 01       	push   $0x100a5e0
 1004aa0:	e8 b3 f9 ff ff       	call   0x1004458
 1004aa5:	68 40 a5 00 01       	push   $0x100a540
 1004aaa:	e8 a9 f9 ff ff       	call   0x1004458
 1004aaf:	8b 15 30 98 00 01    	mov    0x1009830,%edx
 1004ab5:	6a 16                	push   $0x16
 1004ab7:	59                   	pop    %ecx
 1004ab8:	33 c0                	xor    %eax,%eax
 1004aba:	6a 0a                	push   $0xa
 1004abc:	bf 80 a6 00 01       	mov    $0x100a680,%edi
 1004ac1:	f3 ab                	rep stos %eax,%es:(%edi)
 1004ac3:	8b 45 ac             	mov    -0x54(%ebp),%eax
 1004ac6:	59                   	pop    %ecx
 1004ac7:	a3 88 a6 00 01       	mov    %eax,0x100a688
 1004acc:	33 c0                	xor    %eax,%eax
 1004ace:	bf 00 a5 00 01       	mov    $0x100a500,%edi
 1004ad3:	f3 ab                	rep stos %eax,%es:(%edi)
 1004ad5:	8d 45 b0             	lea    -0x50(%ebp),%eax
 1004ad8:	50                   	push   %eax
 1004ad9:	8d 45 b4             	lea    -0x4c(%ebp),%eax
 1004adc:	50                   	push   %eax
 1004add:	68 b0 00 00 00       	push   $0xb0
 1004ae2:	ff 35 38 98 00 01    	pushl  0x1009838
 1004ae8:	c7 05 80 a6 00 01 58 	movl   $0x58,0x100a680
 1004aef:	00 00 00 
 1004af2:	89 15 84 a6 00 01    	mov    %edx,0x100a684
 1004af8:	c7 05 a0 a6 00 01 04 	movl   $0x104,0x100a6a0
 1004aff:	01 00 00 
 1004b02:	c7 05 00 a5 00 01 28 	movl   $0x28,0x100a500
 1004b09:	00 00 00 
 1004b0c:	89 15 04 a5 00 01    	mov    %edx,0x100a504
 1004b12:	ff d6                	call   *%esi
 1004b14:	ff 75 b0             	pushl  -0x50(%ebp)
 1004b17:	ff 75 b4             	pushl  -0x4c(%ebp)
 1004b1a:	68 b1 00 00 00       	push   $0xb1
 1004b1f:	ff 35 38 98 00 01    	pushl  0x1009838
 1004b25:	ff d6                	call   *%esi
 1004b27:	53                   	push   %ebx
 1004b28:	53                   	push   %ebx
 1004b29:	68 b7 00 00 00       	push   $0xb7
 1004b2e:	ff 35 38 98 00 01    	pushl  0x1009838
 1004b34:	ff d6                	call   *%esi
 1004b36:	53                   	push   %ebx
 1004b37:	ff 15 a0 11 00 01    	call   *0x10011a0
 1004b3d:	66 25 ff 03          	and    $0x3ff,%ax
 1004b41:	66 3d 11 00          	cmp    $0x11,%ax
 1004b45:	75 11                	jne    0x1004b58
 1004b47:	6a 01                	push   $0x1
 1004b49:	6a 01                	push   $0x1
 1004b4b:	68 d8 00 00 00       	push   $0xd8
 1004b50:	ff 35 38 98 00 01    	pushl  0x1009838
 1004b56:	ff d6                	call   *%esi
 1004b58:	33 c0                	xor    %eax,%eax
 1004b5a:	40                   	inc    %eax
 1004b5b:	e9 50 fe ff ff       	jmp    0x10049b0
 1004b60:	cc                   	int3   
 1004b61:	cc                   	int3   
 1004b62:	cc                   	int3   
 1004b63:	cc                   	int3   
 1004b64:	cc                   	int3   
 1004b65:	8b ff                	mov    %edi,%edi
 1004b67:	55                   	push   %ebp
 1004b68:	8b ec                	mov    %esp,%ebp
 1004b6a:	56                   	push   %esi
 1004b6b:	8b 75 10             	mov    0x10(%ebp),%esi
 1004b6e:	85 f6                	test   %esi,%esi
 1004b70:	76 1d                	jbe    0x1004b8f
 1004b72:	8b 45 0c             	mov    0xc(%ebp),%eax
 1004b75:	8b 4d 08             	mov    0x8(%ebp),%ecx
 1004b78:	53                   	push   %ebx
 1004b79:	66 0f b6 50 01       	movzbw 0x1(%eax),%dx
 1004b7e:	33 db                	xor    %ebx,%ebx
 1004b80:	8a 38                	mov    (%eax),%bh
 1004b82:	33 d3                	xor    %ebx,%edx
 1004b84:	66 89 11             	mov    %dx,(%ecx)
 1004b87:	41                   	inc    %ecx
 1004b88:	41                   	inc    %ecx
 1004b89:	40                   	inc    %eax
 1004b8a:	40                   	inc    %eax
 1004b8b:	4e                   	dec    %esi
 1004b8c:	75 eb                	jne    0x1004b79
 1004b8e:	5b                   	pop    %ebx
 1004b8f:	5e                   	pop    %esi
 1004b90:	5d                   	pop    %ebp
 1004b91:	c2 0c 00             	ret    $0xc
 1004b94:	cc                   	int3   
 1004b95:	cc                   	int3   
 1004b96:	cc                   	int3   
 1004b97:	cc                   	int3   
 1004b98:	cc                   	int3   
 1004b99:	8b ff                	mov    %edi,%edi
 1004b9b:	55                   	push   %ebp
 1004b9c:	8b ec                	mov    %esp,%ebp
 1004b9e:	83 ec 10             	sub    $0x10,%esp
 1004ba1:	53                   	push   %ebx
 1004ba2:	33 db                	xor    %ebx,%ebx
 1004ba4:	39 5d 18             	cmp    %ebx,0x18(%ebp)
 1004ba7:	75 08                	jne    0x1004bb1
 1004ba9:	33 c0                	xor    %eax,%eax
 1004bab:	40                   	inc    %eax
 1004bac:	e9 8e 00 00 00       	jmp    0x1004c3f
 1004bb1:	81 7d 0c e9 fd 00 00 	cmpl   $0xfde9,0xc(%ebp)
 1004bb8:	89 5d fc             	mov    %ebx,-0x4(%ebp)
 1004bbb:	74 06                	je     0x1004bc3
 1004bbd:	8d 45 f4             	lea    -0xc(%ebp),%eax
 1004bc0:	89 45 fc             	mov    %eax,-0x4(%ebp)
 1004bc3:	56                   	push   %esi
 1004bc4:	8b 35 44 11 00 01    	mov    0x1001144,%esi
 1004bca:	57                   	push   %edi
 1004bcb:	ff 75 fc             	pushl  -0x4(%ebp)
 1004bce:	53                   	push   %ebx
 1004bcf:	53                   	push   %ebx
 1004bd0:	53                   	push   %ebx
 1004bd1:	ff 75 18             	pushl  0x18(%ebp)
 1004bd4:	ff 75 14             	pushl  0x14(%ebp)
 1004bd7:	ff 75 10             	pushl  0x10(%ebp)
 1004bda:	ff 75 0c             	pushl  0xc(%ebp)
 1004bdd:	ff d6                	call   *%esi
 1004bdf:	8b f8                	mov    %eax,%edi
 1004be1:	3b fb                	cmp    %ebx,%edi
 1004be3:	74 1b                	je     0x1004c00
 1004be5:	8d 47 01             	lea    0x1(%edi),%eax
 1004be8:	50                   	push   %eax
 1004be9:	6a 40                	push   $0x40
 1004beb:	ff 15 e0 10 00 01    	call   *0x10010e0
 1004bf1:	3b c3                	cmp    %ebx,%eax
 1004bf3:	89 45 f8             	mov    %eax,-0x8(%ebp)
 1004bf6:	75 0c                	jne    0x1004c04
 1004bf8:	6a 08                	push   $0x8
 1004bfa:	ff 15 40 11 00 01    	call   *0x1001140
 1004c00:	33 c0                	xor    %eax,%eax
 1004c02:	eb 39                	jmp    0x1004c3d
 1004c04:	ff 75 fc             	pushl  -0x4(%ebp)
 1004c07:	53                   	push   %ebx
 1004c08:	57                   	push   %edi
 1004c09:	50                   	push   %eax
 1004c0a:	ff 75 18             	pushl  0x18(%ebp)
 1004c0d:	ff 75 14             	pushl  0x14(%ebp)
 1004c10:	ff 75 10             	pushl  0x10(%ebp)
 1004c13:	ff 75 0c             	pushl  0xc(%ebp)
 1004c16:	ff d6                	call   *%esi
 1004c18:	8b f0                	mov    %eax,%esi
 1004c1a:	3b f3                	cmp    %ebx,%esi
 1004c1c:	74 14                	je     0x1004c32
 1004c1e:	53                   	push   %ebx
 1004c1f:	8d 45 f0             	lea    -0x10(%ebp),%eax
 1004c22:	50                   	push   %eax
 1004c23:	57                   	push   %edi
 1004c24:	ff 75 f8             	pushl  -0x8(%ebp)
 1004c27:	ff 75 08             	pushl  0x8(%ebp)
 1004c2a:	ff 15 3c 11 00 01    	call   *0x100113c
 1004c30:	8b f0                	mov    %eax,%esi
 1004c32:	ff 75 f8             	pushl  -0x8(%ebp)
 1004c35:	ff 15 dc 10 00 01    	call   *0x10010dc
 1004c3b:	8b c6                	mov    %esi,%eax
 1004c3d:	5f                   	pop    %edi
 1004c3e:	5e                   	pop    %esi
 1004c3f:	5b                   	pop    %ebx
 1004c40:	c9                   	leave  
 1004c41:	c2 14 00             	ret    $0x14
 1004c44:	cc                   	int3   
 1004c45:	cc                   	int3   
 1004c46:	cc                   	int3   
 1004c47:	cc                   	int3   
 1004c48:	cc                   	int3   
 1004c49:	8b ff                	mov    %edi,%edi
 1004c4b:	57                   	push   %edi
 1004c4c:	33 ff                	xor    %edi,%edi
 1004c4e:	39 3d 50 98 00 01    	cmp    %edi,0x1009850
 1004c54:	74 4e                	je     0x1004ca4
 1004c56:	39 3d 58 98 00 01    	cmp    %edi,0x1009858
 1004c5c:	56                   	push   %esi
 1004c5d:	8b 35 40 12 00 01    	mov    0x1001240,%esi
 1004c63:	74 09                	je     0x1004c6e
 1004c65:	6a 01                	push   $0x1
 1004c67:	e8 2d cf ff ff       	call   0x1001b99
 1004c6c:	eb 26                	jmp    0x1004c94
 1004c6e:	68 88 9a 00 01       	push   $0x1009a88
 1004c73:	68 8c 9a 00 01       	push   $0x1009a8c
 1004c78:	68 b0 00 00 00       	push   $0xb0
 1004c7d:	ff 35 38 98 00 01    	pushl  0x1009838
 1004c83:	ff d6                	call   *%esi
 1004c85:	57                   	push   %edi
 1004c86:	57                   	push   %edi
 1004c87:	68 b1 00 00 00       	push   $0xb1
 1004c8c:	ff 35 38 98 00 01    	pushl  0x1009838
 1004c92:	ff d6                	call   *%esi
 1004c94:	57                   	push   %edi
 1004c95:	57                   	push   %edi
 1004c96:	68 c8 00 00 00       	push   $0xc8
 1004c9b:	ff 35 38 98 00 01    	pushl  0x1009838
 1004ca1:	ff d6                	call   *%esi
 1004ca3:	5e                   	pop    %esi
 1004ca4:	5f                   	pop    %edi
 1004ca5:	c3                   	ret    
 1004ca6:	cc                   	int3   
 1004ca7:	cc                   	int3   
 1004ca8:	cc                   	int3   
 1004ca9:	cc                   	int3   
 1004caa:	cc                   	int3   
 1004cab:	33 c0                	xor    %eax,%eax
 1004cad:	39 05 50 98 00 01    	cmp    %eax,0x1009850
 1004cb3:	74 44                	je     0x1004cf9
 1004cb5:	39 05 58 98 00 01    	cmp    %eax,0x1009858
 1004cbb:	74 0b                	je     0x1004cc8
 1004cbd:	68 04 01 20 50       	push   $0x50200104
 1004cc2:	e8 7a 0e 00 00       	call   0x1005b41
 1004cc7:	c3                   	ret    
 1004cc8:	56                   	push   %esi
 1004cc9:	8b 35 40 12 00 01    	mov    0x1001240,%esi
 1004ccf:	50                   	push   %eax
 1004cd0:	6a 01                	push   $0x1
 1004cd2:	68 c8 00 00 00       	push   $0xc8
 1004cd7:	ff 35 38 98 00 01    	pushl  0x1009838
 1004cdd:	ff d6                	call   *%esi
 1004cdf:	ff 35 88 9a 00 01    	pushl  0x1009a88
 1004ce5:	ff 35 8c 9a 00 01    	pushl  0x1009a8c
 1004ceb:	68 b1 00 00 00       	push   $0xb1
 1004cf0:	ff 35 38 98 00 01    	pushl  0x1009838
 1004cf6:	ff d6                	call   *%esi
 1004cf8:	5e                   	pop    %esi
 1004cf9:	c3                   	ret    
 1004cfa:	cc                   	int3   
 1004cfb:	cc                   	int3   
 1004cfc:	cc                   	int3   
 1004cfd:	cc                   	int3   
 1004cfe:	cc                   	int3   
 1004cff:	8b ff                	mov    %edi,%edi
 1004d01:	55                   	push   %ebp
 1004d02:	8b ec                	mov    %esp,%ebp
 1004d04:	53                   	push   %ebx
 1004d05:	33 db                	xor    %ebx,%ebx
 1004d07:	39 5d 08             	cmp    %ebx,0x8(%ebp)
 1004d0a:	74 0e                	je     0x1004d1a
 1004d0c:	53                   	push   %ebx
 1004d0d:	e8 fd d9 ff ff       	call   0x100270f
 1004d12:	85 c0                	test   %eax,%eax
 1004d14:	0f 84 a9 00 00 00    	je     0x1004dc3
 1004d1a:	56                   	push   %esi
 1004d1b:	8b 35 40 12 00 01    	mov    0x1001240,%esi
 1004d21:	57                   	push   %edi
 1004d22:	68 94 13 00 01       	push   $0x1001394
 1004d27:	53                   	push   %ebx
 1004d28:	6a 0c                	push   $0xc
 1004d2a:	ff 35 38 98 00 01    	pushl  0x1009838
 1004d30:	ff d6                	call   *%esi
 1004d32:	ff 35 40 90 00 01    	pushl  0x1009040
 1004d38:	bf 00 a9 00 01       	mov    $0x100a900,%edi
 1004d3d:	57                   	push   %edi
 1004d3e:	c7 05 1c 90 00 01 01 	movl   $0x1,0x100901c
 1004d45:	00 00 00 
 1004d48:	ff 15 fc 10 00 01    	call   *0x10010fc
 1004d4e:	57                   	push   %edi
 1004d4f:	e8 01 dd ff ff       	call   0x1002a55
 1004d54:	53                   	push   %ebx
 1004d55:	53                   	push   %ebx
 1004d56:	68 b1 00 00 00       	push   $0xb1
 1004d5b:	ff 35 38 98 00 01    	pushl  0x1009838
 1004d61:	ff d6                	call   *%esi
 1004d63:	53                   	push   %ebx
 1004d64:	53                   	push   %ebx
 1004d65:	68 b7 00 00 00       	push   $0xb7
 1004d6a:	ff 35 38 98 00 01    	pushl  0x1009838
 1004d70:	ff d6                	call   *%esi
 1004d72:	6a 02                	push   $0x2
 1004d74:	6a 02                	push   $0x2
 1004d76:	ff 35 8c ab 00 01    	pushl  0x100ab8c
 1004d7c:	ff 15 48 11 00 01    	call   *0x1001148
 1004d82:	3b c3                	cmp    %ebx,%eax
 1004d84:	74 05                	je     0x1004d8b
 1004d86:	a3 8c ab 00 01       	mov    %eax,0x100ab8c
 1004d8b:	ff 35 8c ab 00 01    	pushl  0x100ab8c
 1004d91:	ff 15 f0 10 00 01    	call   *0x10010f0
 1004d97:	66 89 18             	mov    %bx,(%eax)
 1004d9a:	ff 35 8c ab 00 01    	pushl  0x100ab8c
 1004da0:	ff 15 e8 10 00 01    	call   *0x10010e8
 1004da6:	53                   	push   %ebx
 1004da7:	ff 35 8c ab 00 01    	pushl  0x100ab8c
 1004dad:	68 bc 00 00 00       	push   $0xbc
 1004db2:	ff 35 38 98 00 01    	pushl  0x1009838
 1004db8:	ff d6                	call   *%esi
 1004dba:	5f                   	pop    %edi
 1004dbb:	66 89 1d 00 a8 00 01 	mov    %bx,0x100a800
 1004dc2:	5e                   	pop    %esi
 1004dc3:	5b                   	pop    %ebx
 1004dc4:	5d                   	pop    %ebp
 1004dc5:	c2 04 00             	ret    $0x4
 1004dc8:	cc                   	int3   
 1004dc9:	cc                   	int3   
 1004dca:	cc                   	int3   
 1004dcb:	cc                   	int3   
 1004dcc:	cc                   	int3   
 1004dcd:	8b ff                	mov    %edi,%edi
 1004dcf:	55                   	push   %ebp
 1004dd0:	8b ec                	mov    %esp,%ebp
 1004dd2:	56                   	push   %esi
 1004dd3:	8b 75 08             	mov    0x8(%ebp),%esi
 1004dd6:	56                   	push   %esi
 1004dd7:	ff 15 e4 10 00 01    	call   *0x10010e4
 1004ddd:	8d 0c 46             	lea    (%esi,%eax,2),%ecx
 1004de0:	eb 10                	jmp    0x1004df2
 1004de2:	83 fa 5c             	cmp    $0x5c,%edx
 1004de5:	74 13                	je     0x1004dfa
 1004de7:	83 fa 3a             	cmp    $0x3a,%edx
 1004dea:	74 0e                	je     0x1004dfa
 1004dec:	3b ce                	cmp    %esi,%ecx
 1004dee:	76 0a                	jbe    0x1004dfa
 1004df0:	49                   	dec    %ecx
 1004df1:	49                   	dec    %ecx
 1004df2:	0f b7 11             	movzwl (%ecx),%edx
 1004df5:	83 fa 2e             	cmp    $0x2e,%edx
 1004df8:	75 e8                	jne    0x1004de2
 1004dfa:	66 83 39 2e          	cmpw   $0x2e,(%ecx)
 1004dfe:	74 16                	je     0x1004e16
 1004e00:	83 c0 05             	add    $0x5,%eax
 1004e03:	3d 04 01 00 00       	cmp    $0x104,%eax
 1004e08:	77 0c                	ja     0x1004e16
 1004e0a:	68 f4 17 00 01       	push   $0x10017f4
 1004e0f:	56                   	push   %esi
 1004e10:	ff 15 18 11 00 01    	call   *0x1001118
 1004e16:	5e                   	pop    %esi
 1004e17:	5d                   	pop    %ebp
 1004e18:	c2 04 00             	ret    $0x4
 1004e1b:	cc                   	int3   
 1004e1c:	cc                   	int3   
 1004e1d:	cc                   	int3   
 1004e1e:	cc                   	int3   
 1004e1f:	cc                   	int3   
 1004e20:	8b ff                	mov    %edi,%edi
 1004e22:	55                   	push   %ebp
 1004e23:	8b ec                	mov    %esp,%ebp
 1004e25:	81 ec 04 02 00 00    	sub    $0x204,%esp
 1004e2b:	a1 04 96 00 01       	mov    0x1009604,%eax
 1004e30:	56                   	push   %esi
 1004e31:	8b 75 08             	mov    0x8(%ebp),%esi
 1004e34:	6a 00                	push   $0x0
 1004e36:	89 45 fc             	mov    %eax,-0x4(%ebp)
 1004e39:	68 00 01 00 00       	push   $0x100
 1004e3e:	8d 85 fc fd ff ff    	lea    -0x204(%ebp),%eax
 1004e44:	50                   	push   %eax
 1004e45:	ff 15 50 11 00 01    	call   *0x1001150
 1004e4b:	0f b7 c0             	movzwl %ax,%eax
 1004e4e:	50                   	push   %eax
 1004e4f:	ff 15 38 11 00 01    	call   *0x1001138
 1004e55:	50                   	push   %eax
 1004e56:	6a 00                	push   $0x0
 1004e58:	68 00 12 00 00       	push   $0x1200
 1004e5d:	ff 15 4c 11 00 01    	call   *0x100114c
 1004e63:	85 c0                	test   %eax,%eax
 1004e65:	6a 30                	push   $0x30
 1004e67:	74 1b                	je     0x1004e84
 1004e69:	ff 35 54 90 00 01    	pushl  0x1009054
 1004e6f:	8d 85 fc fd ff ff    	lea    -0x204(%ebp),%eax
 1004e75:	50                   	push   %eax
 1004e76:	ff 35 30 98 00 01    	pushl  0x1009830
 1004e7c:	ff 15 68 12 00 01    	call   *0x1001268
 1004e82:	eb 18                	jmp    0x1004e9c
 1004e84:	56                   	push   %esi
 1004e85:	ff 35 34 90 00 01    	pushl  0x1009034
 1004e8b:	ff 35 54 90 00 01    	pushl  0x1009054
 1004e91:	ff 35 30 98 00 01    	pushl  0x1009830
 1004e97:	e8 d4 d0 ff ff       	call   0x1001f70
 1004e9c:	8b 4d fc             	mov    -0x4(%ebp),%ecx
 1004e9f:	5e                   	pop    %esi
 1004ea0:	e8 a2 22 00 00       	call   0x1007147
 1004ea5:	c9                   	leave  
 1004ea6:	c2 04 00             	ret    $0x4
 1004ea9:	cc                   	int3   
 1004eaa:	cc                   	int3   
 1004eab:	cc                   	int3   
 1004eac:	cc                   	int3   
 1004ead:	cc                   	int3   
 1004eae:	8b ff                	mov    %edi,%edi
 1004eb0:	55                   	push   %ebp
 1004eb1:	8b ec                	mov    %esp,%ebp
 1004eb3:	83 ec 14             	sub    $0x14,%esp
 1004eb6:	56                   	push   %esi
 1004eb7:	33 f6                	xor    %esi,%esi
 1004eb9:	39 75 10             	cmp    %esi,0x10(%ebp)
 1004ebc:	56                   	push   %esi
 1004ebd:	68 80 00 00 00       	push   $0x80
 1004ec2:	6a 04                	push   $0x4
 1004ec4:	89 75 f0             	mov    %esi,-0x10(%ebp)
 1004ec7:	56                   	push   %esi
 1004ec8:	75 04                	jne    0x1004ece
 1004eca:	6a 01                	push   $0x1
 1004ecc:	eb 02                	jmp    0x1004ed0
 1004ece:	6a 03                	push   $0x3
 1004ed0:	68 00 00 00 c0       	push   $0xc0000000
 1004ed5:	ff 75 0c             	pushl  0xc(%ebp)
 1004ed8:	ff 15 04 11 00 01    	call   *0x1001104
 1004ede:	83 f8 ff             	cmp    $0xffffffff,%eax
 1004ee1:	a3 80 a4 00 01       	mov    %eax,0x100a480
 1004ee6:	74 1c                	je     0x1004f04
 1004ee8:	ff 15 38 11 00 01    	call   *0x1001138
 1004eee:	33 c9                	xor    %ecx,%ecx
 1004ef0:	3d b7 00 00 00       	cmp    $0xb7,%eax
 1004ef5:	0f 95 c1             	setne  %cl
 1004ef8:	83 3d 80 a4 00 01 ff 	cmpl   $0xffffffff,0x100a480
 1004eff:	89 4d ec             	mov    %ecx,-0x14(%ebp)
 1004f02:	75 20                	jne    0x1004f24
 1004f04:	6a 30                	push   $0x30
 1004f06:	ff 75 0c             	pushl  0xc(%ebp)
 1004f09:	ff 35 68 90 00 01    	pushl  0x1009068
 1004f0f:	ff 35 54 90 00 01    	pushl  0x1009054
 1004f15:	ff 75 08             	pushl  0x8(%ebp)
 1004f18:	e8 53 d0 ff ff       	call   0x1001f70
 1004f1d:	33 c0                	xor    %eax,%eax
 1004f1f:	e9 da 01 00 00       	jmp    0x10050fe
 1004f24:	39 35 50 98 00 01    	cmp    %esi,0x1009850
 1004f2a:	74 05                	je     0x1004f31
 1004f2c:	e8 18 fd ff ff       	call   0x1004c49
 1004f31:	53                   	push   %ebx
 1004f32:	57                   	push   %edi
 1004f33:	8b 3d 40 12 00 01    	mov    0x1001240,%edi
 1004f39:	56                   	push   %esi
 1004f3a:	56                   	push   %esi
 1004f3b:	6a 0e                	push   $0xe
 1004f3d:	ff 35 38 98 00 01    	pushl  0x1009838
 1004f43:	ff d7                	call   *%edi
 1004f45:	56                   	push   %esi
 1004f46:	56                   	push   %esi
 1004f47:	68 bd 00 00 00       	push   $0xbd
 1004f4c:	ff 35 38 98 00 01    	pushl  0x1009838
 1004f52:	8b d8                	mov    %eax,%ebx
 1004f54:	ff d7                	call   *%edi
 1004f56:	3b c6                	cmp    %esi,%eax
 1004f58:	89 45 f4             	mov    %eax,-0xc(%ebp)
 1004f5b:	0f 84 49 01 00 00    	je     0x10050aa
 1004f61:	50                   	push   %eax
 1004f62:	ff 15 f0 10 00 01    	call   *0x10010f0
 1004f68:	3b c6                	cmp    %esi,%eax
 1004f6a:	89 45 10             	mov    %eax,0x10(%ebp)
 1004f6d:	0f 84 37 01 00 00    	je     0x10050aa
 1004f73:	a1 28 a5 00 01       	mov    0x100a528,%eax
 1004f78:	48                   	dec    %eax
 1004f79:	0f 84 eb 00 00 00    	je     0x100506a
 1004f7f:	48                   	dec    %eax
 1004f80:	0f 84 9a 00 00 00    	je     0x1005020
 1004f86:	48                   	dec    %eax
 1004f87:	75 18                	jne    0x1004fa1
 1004f89:	56                   	push   %esi
 1004f8a:	8d 45 fc             	lea    -0x4(%ebp),%eax
 1004f8d:	50                   	push   %eax
 1004f8e:	6a 03                	push   $0x3
 1004f90:	68 e0 91 00 01       	push   $0x10091e0
 1004f95:	ff 35 80 a4 00 01    	pushl  0x100a480
 1004f9b:	ff 15 3c 11 00 01    	call   *0x100113c
 1004fa1:	83 3d 28 a5 00 01 03 	cmpl   $0x3,0x100a528
 1004fa8:	74 13                	je     0x1004fbd
 1004faa:	ff 15 5c 11 00 01    	call   *0x100115c
 1004fb0:	89 45 f8             	mov    %eax,-0x8(%ebp)
 1004fb3:	8d 45 f0             	lea    -0x10(%ebp),%eax
 1004fb6:	bf 00 04 00 00       	mov    $0x400,%edi
 1004fbb:	eb 0b                	jmp    0x1004fc8
 1004fbd:	33 c0                	xor    %eax,%eax
 1004fbf:	c7 45 f8 e9 fd 00 00 	movl   $0xfde9,-0x8(%ebp)
 1004fc6:	33 ff                	xor    %edi,%edi
 1004fc8:	50                   	push   %eax
 1004fc9:	56                   	push   %esi
 1004fca:	56                   	push   %esi
 1004fcb:	56                   	push   %esi
 1004fcc:	53                   	push   %ebx
 1004fcd:	ff 75 10             	pushl  0x10(%ebp)
 1004fd0:	57                   	push   %edi
 1004fd1:	ff 75 f8             	pushl  -0x8(%ebp)
 1004fd4:	ff 15 44 11 00 01    	call   *0x1001144
 1004fda:	39 75 f0             	cmp    %esi,-0x10(%ebp)
 1004fdd:	75 08                	jne    0x1004fe7
 1004fdf:	3b de                	cmp    %esi,%ebx
 1004fe1:	74 28                	je     0x100500b
 1004fe3:	3b c6                	cmp    %esi,%eax
 1004fe5:	75 24                	jne    0x100500b
 1004fe7:	6a 31                	push   $0x31
 1004fe9:	ff 75 0c             	pushl  0xc(%ebp)
 1004fec:	ff 35 a0 90 00 01    	pushl  0x10090a0
 1004ff2:	ff 35 54 90 00 01    	pushl  0x1009054
 1004ff8:	ff 75 08             	pushl  0x8(%ebp)
 1004ffb:	e8 70 cf ff ff       	call   0x1001f70
 1005000:	83 f8 02             	cmp    $0x2,%eax
 1005003:	0f 84 a9 00 00 00    	je     0x10050b2
 1005009:	33 ff                	xor    %edi,%edi
 100500b:	53                   	push   %ebx
 100500c:	ff 75 10             	pushl  0x10(%ebp)
 100500f:	57                   	push   %edi
 1005010:	ff 75 f8             	pushl  -0x8(%ebp)
 1005013:	ff 35 80 a4 00 01    	pushl  0x100a480
 1005019:	e8 7b fb ff ff       	call   0x1004b99
 100501e:	eb 78                	jmp    0x1005098
 1005020:	8b 3d 3c 11 00 01    	mov    0x100113c,%edi
 1005026:	56                   	push   %esi
 1005027:	8d 45 fc             	lea    -0x4(%ebp),%eax
 100502a:	50                   	push   %eax
 100502b:	6a 02                	push   $0x2
 100502d:	68 e8 91 00 01       	push   $0x10091e8
 1005032:	ff 35 80 a4 00 01    	pushl  0x100a480
 1005038:	ff d7                	call   *%edi
 100503a:	53                   	push   %ebx
 100503b:	ff 75 10             	pushl  0x10(%ebp)
 100503e:	ff 75 10             	pushl  0x10(%ebp)
 1005041:	e8 1f fb ff ff       	call   0x1004b65
 1005046:	56                   	push   %esi
 1005047:	8d 45 fc             	lea    -0x4(%ebp),%eax
 100504a:	50                   	push   %eax
 100504b:	8d 04 1b             	lea    (%ebx,%ebx,1),%eax
 100504e:	50                   	push   %eax
 100504f:	ff 75 10             	pushl  0x10(%ebp)
 1005052:	ff 35 80 a4 00 01    	pushl  0x100a480
 1005058:	ff d7                	call   *%edi
 100505a:	53                   	push   %ebx
 100505b:	ff 75 10             	pushl  0x10(%ebp)
 100505e:	8b f8                	mov    %eax,%edi
 1005060:	ff 75 10             	pushl  0x10(%ebp)
 1005063:	e8 fd fa ff ff       	call   0x1004b65
 1005068:	eb 30                	jmp    0x100509a
 100506a:	8b 3d 3c 11 00 01    	mov    0x100113c,%edi
 1005070:	56                   	push   %esi
 1005071:	8d 45 fc             	lea    -0x4(%ebp),%eax
 1005074:	50                   	push   %eax
 1005075:	6a 02                	push   $0x2
 1005077:	68 e4 91 00 01       	push   $0x10091e4
 100507c:	ff 35 80 a4 00 01    	pushl  0x100a480
 1005082:	ff d7                	call   *%edi
 1005084:	56                   	push   %esi
 1005085:	8d 45 fc             	lea    -0x4(%ebp),%eax
 1005088:	50                   	push   %eax
 1005089:	8d 04 1b             	lea    (%ebx,%ebx,1),%eax
 100508c:	50                   	push   %eax
 100508d:	ff 75 10             	pushl  0x10(%ebp)
 1005090:	ff 35 80 a4 00 01    	pushl  0x100a480
 1005096:	ff d7                	call   *%edi
 1005098:	8b f8                	mov    %eax,%edi
 100509a:	3b fe                	cmp    %esi,%edi
 100509c:	75 65                	jne    0x1005103
 100509e:	ff 35 88 ab 00 01    	pushl  0x100ab88
 10050a4:	ff 15 8c 11 00 01    	call   *0x100118c
 10050aa:	ff 75 0c             	pushl  0xc(%ebp)
 10050ad:	e8 6e fd ff ff       	call   0x1004e20
 10050b2:	ff 35 88 ab 00 01    	pushl  0x100ab88
 10050b8:	ff 15 8c 11 00 01    	call   *0x100118c
 10050be:	ff 35 80 a4 00 01    	pushl  0x100a480
 10050c4:	ff 15 f8 10 00 01    	call   *0x10010f8
 10050ca:	83 0d 80 a4 00 01 ff 	orl    $0xffffffff,0x100a480
 10050d1:	39 75 f4             	cmp    %esi,-0xc(%ebp)
 10050d4:	74 09                	je     0x10050df
 10050d6:	ff 75 f4             	pushl  -0xc(%ebp)
 10050d9:	ff 15 e8 10 00 01    	call   *0x10010e8
 10050df:	39 75 ec             	cmp    %esi,-0x14(%ebp)
 10050e2:	74 09                	je     0x10050ed
 10050e4:	ff 75 0c             	pushl  0xc(%ebp)
 10050e7:	ff 15 58 11 00 01    	call   *0x1001158
 10050ed:	39 35 50 98 00 01    	cmp    %esi,0x1009850
 10050f3:	74 05                	je     0x10050fa
 10050f5:	e8 b1 fb ff ff       	call   0x1004cab
 10050fa:	33 c0                	xor    %eax,%eax
 10050fc:	5f                   	pop    %edi
 10050fd:	5b                   	pop    %ebx
 10050fe:	5e                   	pop    %esi
 10050ff:	c9                   	leave  
 1005100:	c2 0c 00             	ret    $0xc
 1005103:	ff 35 80 a4 00 01    	pushl  0x100a480
 1005109:	ff 15 54 11 00 01    	call   *0x1001154
 100510f:	a1 28 a5 00 01       	mov    0x100a528,%eax
 1005114:	56                   	push   %esi
 1005115:	56                   	push   %esi
 1005116:	68 b9 00 00 00       	push   $0xb9
 100511b:	ff 35 38 98 00 01    	pushl  0x1009838
 1005121:	a3 30 90 00 01       	mov    %eax,0x1009030
 1005126:	ff 15 40 12 00 01    	call   *0x1001240
 100512c:	ff 75 0c             	pushl  0xc(%ebp)
 100512f:	e8 21 d9 ff ff       	call   0x1002a55
 1005134:	ff 35 80 a4 00 01    	pushl  0x100a480
 100513a:	89 35 1c 90 00 01    	mov    %esi,0x100901c
 1005140:	ff 15 f8 10 00 01    	call   *0x10010f8
 1005146:	ff 75 f4             	pushl  -0xc(%ebp)
 1005149:	83 0d 80 a4 00 01 ff 	orl    $0xffffffff,0x100a480
 1005150:	ff 15 e8 10 00 01    	call   *0x10010e8
 1005156:	39 35 50 98 00 01    	cmp    %esi,0x1009850
 100515c:	74 05                	je     0x1005163
 100515e:	e8 48 fb ff ff       	call   0x1004cab
 1005163:	ff 35 88 ab 00 01    	pushl  0x100ab88
 1005169:	ff 15 8c 11 00 01    	call   *0x100118c
 100516f:	33 c0                	xor    %eax,%eax
 1005171:	40                   	inc    %eax
 1005172:	eb 88                	jmp    0x10050fc
 1005174:	cc                   	int3   
 1005175:	cc                   	int3   
 1005176:	cc                   	int3   
 1005177:	cc                   	int3   
 1005178:	cc                   	int3   
 1005179:	68 80 02 00 00       	push   $0x280
 100517e:	68 00 18 00 01       	push   $0x1001800
 1005183:	e8 e0 23 00 00       	call   0x1007568
 1005188:	a1 04 96 00 01       	mov    0x1009604,%eax
 100518d:	89 45 e4             	mov    %eax,-0x1c(%ebp)
 1005190:	8b 7d 08             	mov    0x8(%ebp),%edi
 1005193:	89 bd c0 fd ff ff    	mov    %edi,-0x240(%ebp)
 1005199:	33 db                	xor    %ebx,%ebx
 100519b:	89 9d cc fd ff ff    	mov    %ebx,-0x234(%ebp)
 10051a1:	89 9d b0 fd ff ff    	mov    %ebx,-0x250(%ebp)
 10051a7:	89 9d c8 fd ff ff    	mov    %ebx,-0x238(%ebp)
 10051ad:	89 9d b8 fd ff ff    	mov    %ebx,-0x248(%ebp)
 10051b3:	89 9d d0 fd ff ff    	mov    %ebx,-0x230(%ebp)
 10051b9:	a1 80 a4 00 01       	mov    0x100a480,%eax
 10051be:	83 f8 ff             	cmp    $0xffffffff,%eax
 10051c1:	75 06                	jne    0x10051c9
 10051c3:	57                   	push   %edi
 10051c4:	e9 d7 00 00 00       	jmp    0x10052a0
 10051c9:	8d 8d 70 fd ff ff    	lea    -0x290(%ebp),%ecx
 10051cf:	51                   	push   %ecx
 10051d0:	50                   	push   %eax
 10051d1:	ff 15 b0 10 00 01    	call   *0x10010b0
 10051d7:	8b b5 94 fd ff ff    	mov    -0x26c(%ebp),%esi
 10051dd:	89 b5 ac fd ff ff    	mov    %esi,-0x254(%ebp)
 10051e3:	3b c3                	cmp    %ebx,%eax
 10051e5:	75 0b                	jne    0x10051f2
 10051e7:	57                   	push   %edi
 10051e8:	e8 33 fc ff ff       	call   0x1004e20
 10051ed:	e9 ef 05 00 00       	jmp    0x10057e1
 10051f2:	81 fe 00 00 00 40    	cmp    $0x40000000,%esi
 10051f8:	0f 83 c9 05 00 00    	jae    0x10057c7
 10051fe:	39 9d 90 fd ff ff    	cmp    %ebx,-0x270(%ebp)
 1005204:	0f 85 bd 05 00 00    	jne    0x10057c7
 100520a:	ff 35 84 ab 00 01    	pushl  0x100ab84
 1005210:	ff 15 8c 11 00 01    	call   *0x100118c
 1005216:	3b f3                	cmp    %ebx,%esi
 1005218:	74 44                	je     0x100525e
 100521a:	33 ff                	xor    %edi,%edi
 100521c:	89 bd c4 fd ff ff    	mov    %edi,-0x23c(%ebp)
 1005222:	53                   	push   %ebx
 1005223:	56                   	push   %esi
 1005224:	53                   	push   %ebx
 1005225:	6a 02                	push   $0x2
 1005227:	53                   	push   %ebx
 1005228:	ff 35 80 a4 00 01    	pushl  0x100a480
 100522e:	ff 15 b4 10 00 01    	call   *0x10010b4
 1005234:	89 85 a4 fd ff ff    	mov    %eax,-0x25c(%ebp)
 100523a:	3b c3                	cmp    %ebx,%eax
 100523c:	74 39                	je     0x1005277
 100523e:	56                   	push   %esi
 100523f:	53                   	push   %ebx
 1005240:	53                   	push   %ebx
 1005241:	6a 04                	push   $0x4
 1005243:	50                   	push   %eax
 1005244:	ff 15 68 11 00 01    	call   *0x1001168
 100524a:	89 85 c4 fd ff ff    	mov    %eax,-0x23c(%ebp)
 1005250:	ff b5 a4 fd ff ff    	pushl  -0x25c(%ebp)
 1005256:	ff 15 f8 10 00 01    	call   *0x10010f8
 100525c:	eb 13                	jmp    0x1005271
 100525e:	8d 85 b4 fd ff ff    	lea    -0x24c(%ebp),%eax
 1005264:	89 85 c4 fd ff ff    	mov    %eax,-0x23c(%ebp)
 100526a:	66 89 9d b4 fd ff ff 	mov    %bx,-0x24c(%ebp)
 1005271:	8b bd c4 fd ff ff    	mov    -0x23c(%ebp),%edi
 1005277:	ff 35 80 a4 00 01    	pushl  0x100a480
 100527d:	ff 15 f8 10 00 01    	call   *0x10010f8
 1005283:	83 0d 80 a4 00 01 ff 	orl    $0xffffffff,0x100a480
 100528a:	3b fb                	cmp    %ebx,%edi
 100528c:	75 1c                	jne    0x10052aa
 100528e:	ff 35 88 ab 00 01    	pushl  0x100ab88
 1005294:	ff 15 8c 11 00 01    	call   *0x100118c
 100529a:	ff b5 c0 fd ff ff    	pushl  -0x240(%ebp)
 10052a0:	e8 7b fb ff ff       	call   0x1004e20
 10052a5:	e9 4a 05 00 00       	jmp    0x10057f4
 10052aa:	89 5d fc             	mov    %ebx,-0x4(%ebp)
 10052ad:	89 bd bc fd ff ff    	mov    %edi,-0x244(%ebp)
 10052b3:	8b 45 0c             	mov    0xc(%ebp),%eax
 10052b6:	83 f8 ff             	cmp    $0xffffffff,%eax
 10052b9:	0f 85 b2 01 00 00    	jne    0x1005471
 10052bf:	0f b7 07             	movzwl (%edi),%eax
 10052c2:	3d ef bb 00 00       	cmp    $0xbbef,%eax
 10052c7:	74 3c                	je     0x1005305
 10052c9:	3d ff fe 00 00       	cmp    $0xfeff,%eax
 10052ce:	74 24                	je     0x10052f4
 10052d0:	3d fe ff 00 00       	cmp    $0xfffe,%eax
 10052d5:	75 5b                	jne    0x1005332
 10052d7:	c7 85 c8 fd ff ff 01 	movl   $0x1,-0x238(%ebp)
 10052de:	00 00 00 
 10052e1:	c7 85 d4 fd ff ff 02 	movl   $0x2,-0x22c(%ebp)
 10052e8:	00 00 00 
 10052eb:	8b de                	mov    %esi,%ebx
 10052ed:	d1 eb                	shr    %ebx
 10052ef:	e9 30 02 00 00       	jmp    0x1005524
 10052f4:	33 c0                	xor    %eax,%eax
 10052f6:	40                   	inc    %eax
 10052f7:	89 85 c8 fd ff ff    	mov    %eax,-0x238(%ebp)
 10052fd:	89 85 d4 fd ff ff    	mov    %eax,-0x22c(%ebp)
 1005303:	eb e6                	jmp    0x10052eb
 1005305:	83 fe 02             	cmp    $0x2,%esi
 1005308:	76 28                	jbe    0x1005332
 100530a:	80 7f 02 bf          	cmpb   $0xbf,0x2(%edi)
 100530e:	75 22                	jne    0x1005332
 1005310:	c7 85 a8 fd ff ff 01 	movl   $0x1,-0x258(%ebp)
 1005317:	00 00 00 
 100531a:	c7 85 d0 fd ff ff e9 	movl   $0xfde9,-0x230(%ebp)
 1005321:	fd 00 00 
 1005324:	6a 03                	push   $0x3
 1005326:	58                   	pop    %eax
 1005327:	89 85 d4 fd ff ff    	mov    %eax,-0x22c(%ebp)
 100532d:	e9 98 01 00 00       	jmp    0x10054ca
 1005332:	56                   	push   %esi
 1005333:	57                   	push   %edi
 1005334:	e8 78 1d 00 00       	call   0x10070b1
 1005339:	89 85 c8 fd ff ff    	mov    %eax,-0x238(%ebp)
 100533f:	3b c3                	cmp    %ebx,%eax
 1005341:	74 13                	je     0x1005356
 1005343:	c7 85 d4 fd ff ff 01 	movl   $0x1,-0x22c(%ebp)
 100534a:	00 00 00 
 100534d:	8b de                	mov    %esi,%ebx
 100534f:	d1 eb                	shr    %ebx
 1005351:	e9 cf 01 00 00       	jmp    0x1005525
 1005356:	56                   	push   %esi
 1005357:	57                   	push   %edi
 1005358:	e8 fc 1c 00 00       	call   0x1007059
 100535d:	89 85 a8 fd ff ff    	mov    %eax,-0x258(%ebp)
 1005363:	3b c3                	cmp    %ebx,%eax
 1005365:	0f 84 13 01 00 00    	je     0x100547e
 100536b:	c7 85 d4 fd ff ff 03 	movl   $0x3,-0x22c(%ebp)
 1005372:	00 00 00 
 1005375:	c7 85 d0 fd ff ff e9 	movl   $0xfde9,-0x230(%ebp)
 100537c:	fd 00 00 
 100537f:	8b 9d d8 fd ff ff    	mov    -0x228(%ebp),%ebx
 1005385:	33 c0                	xor    %eax,%eax
 1005387:	39 85 c8 fd ff ff    	cmp    %eax,-0x238(%ebp)
 100538d:	75 20                	jne    0x10053af
 100538f:	50                   	push   %eax
 1005390:	50                   	push   %eax
 1005391:	56                   	push   %esi
 1005392:	ff b5 bc fd ff ff    	pushl  -0x244(%ebp)
 1005398:	50                   	push   %eax
 1005399:	ff b5 d0 fd ff ff    	pushl  -0x230(%ebp)
 100539f:	ff 15 64 11 00 01    	call   *0x1001164
 10053a5:	8b d8                	mov    %eax,%ebx
 10053a7:	89 9d d8 fd ff ff    	mov    %ebx,-0x228(%ebp)
 10053ad:	33 c0                	xor    %eax,%eax
 10053af:	50                   	push   %eax
 10053b0:	50                   	push   %eax
 10053b1:	6a 0b                	push   $0xb
 10053b3:	ff 35 38 98 00 01    	pushl  0x1009838
 10053b9:	8b 35 40 12 00 01    	mov    0x1001240,%esi
 10053bf:	ff d6                	call   *%esi
 10053c1:	6a 00                	push   $0x0
 10053c3:	6a 00                	push   $0x0
 10053c5:	68 b1 00 00 00       	push   $0xb1
 10053ca:	ff 35 38 98 00 01    	pushl  0x1009838
 10053d0:	ff d6                	call   *%esi
 10053d2:	6a 00                	push   $0x0
 10053d4:	6a 00                	push   $0x0
 10053d6:	68 b7 00 00 00       	push   $0xb7
 10053db:	ff 35 38 98 00 01    	pushl  0x1009838
 10053e1:	ff d6                	call   *%esi
 10053e3:	6a 02                	push   $0x2
 10053e5:	8d 44 1b 02          	lea    0x2(%ebx,%ebx,1),%eax
 10053e9:	50                   	push   %eax
 10053ea:	ff 35 8c ab 00 01    	pushl  0x100ab8c
 10053f0:	ff 15 48 11 00 01    	call   *0x1001148
 10053f6:	89 85 b8 fd ff ff    	mov    %eax,-0x248(%ebp)
 10053fc:	85 c0                	test   %eax,%eax
 10053fe:	0f 85 2c 01 00 00    	jne    0x1005530
 1005404:	ff b5 c0 fd ff ff    	pushl  -0x240(%ebp)
 100540a:	8d 85 dc fd ff ff    	lea    -0x224(%ebp),%eax
 1005410:	50                   	push   %eax
 1005411:	ff 15 fc 10 00 01    	call   *0x10010fc
 1005417:	33 db                	xor    %ebx,%ebx
 1005419:	53                   	push   %ebx
 100541a:	e8 e0 f8 ff ff       	call   0x1004cff
 100541f:	ff 35 88 ab 00 01    	pushl  0x100ab88
 1005425:	ff 15 8c 11 00 01    	call   *0x100118c
 100542b:	6a 30                	push   $0x30
 100542d:	8d 85 dc fd ff ff    	lea    -0x224(%ebp),%eax
 1005433:	50                   	push   %eax
 1005434:	ff 35 50 90 00 01    	pushl  0x1009050
 100543a:	ff 35 54 90 00 01    	pushl  0x1009054
 1005440:	ff 35 30 98 00 01    	pushl  0x1009830
 1005446:	e8 25 cb ff ff       	call   0x1001f70
 100544b:	8d 85 b4 fd ff ff    	lea    -0x24c(%ebp),%eax
 1005451:	3b f8                	cmp    %eax,%edi
 1005453:	74 07                	je     0x100545c
 1005455:	57                   	push   %edi
 1005456:	ff 15 60 11 00 01    	call   *0x1001160
 100545c:	53                   	push   %ebx
 100545d:	53                   	push   %ebx
 100545e:	6a 0b                	push   $0xb
 1005460:	ff 35 38 98 00 01    	pushl  0x1009838
 1005466:	ff d6                	call   *%esi
 1005468:	83 4d fc ff          	orl    $0xffffffff,-0x4(%ebp)
 100546c:	e9 83 03 00 00       	jmp    0x10057f4
 1005471:	48                   	dec    %eax
 1005472:	0f 84 88 00 00 00    	je     0x1005500
 1005478:	48                   	dec    %eax
 1005479:	74 65                	je     0x10054e0
 100547b:	48                   	dec    %eax
 100547c:	74 11                	je     0x100548f
 100547e:	89 9d d4 fd ff ff    	mov    %ebx,-0x22c(%ebp)
 1005484:	89 9d d0 fd ff ff    	mov    %ebx,-0x230(%ebp)
 100548a:	e9 f0 fe ff ff       	jmp    0x100537f
 100548f:	c7 85 a8 fd ff ff 01 	movl   $0x1,-0x258(%ebp)
 1005496:	00 00 00 
 1005499:	c7 85 d0 fd ff ff e9 	movl   $0xfde9,-0x230(%ebp)
 10054a0:	fd 00 00 
 10054a3:	6a 03                	push   $0x3
 10054a5:	58                   	pop    %eax

